; ModuleID = '/data/dildick/GlobalCorrelator/pulsar_devkit/simple_examples/HLSIPs/hls_delta_minus_LUT/solution1/.autopilot/db/a.o.3.bc'
target datalayout = "e-p:64:64:64-i1:8:8-i8:8:8-i16:16:16-i32:32:32-i64:64:64-f32:32:32-f64:64:64-v64:64:64-v128:128:128-a0:0:64-s0:64:64-f80:128:128-n8:16:32:64-S128"
target triple = "x86_64-unknown-linux-gnu"

@llvm_global_ctors_1 = appending global [1 x void ()*] [void ()* @_GLOBAL__I_a] ; [#uses=0 type=[1 x void ()*]*]
@llvm_global_ctors_0 = appending global [1 x i32] [i32 65535] ; [#uses=0 type=[1 x i32]*]
@delta_minus_table1 = internal unnamed_addr constant [1024 x i5] [i5 -14, i5 -14, i5 -14, i5 -14, i5 -14, i5 -14, i5 -14, i5 -14, i5 -14, i5 -14, i5 -14, i5 -14, i5 -14, i5 -14, i5 -14, i5 -14, i5 -14, i5 -14, i5 -14, i5 -14, i5 -14, i5 -15, i5 -15, i5 -15, i5 -15, i5 -15, i5 -15, i5 -15, i5 -15, i5 -15, i5 -15, i5 -15, i5 -15, i5 -15, i5 -15, i5 -15, i5 -15, i5 -15, i5 -15, i5 -15, i5 -15, i5 -15, i5 -15, i5 -15, i5 -15, i5 -15, i5 -15, i5 -15, i5 -15, i5 -15, i5 -15, i5 -15, i5 -15, i5 -15, i5 -15, i5 -15, i5 -15, i5 -15, i5 -15, i5 -15, i5 -15, i5 -15, i5 -15, i5 -15, i5 -15, i5 -15, i5 -15, i5 -15, i5 -15, i5 -15, i5 -15, i5 -15, i5 -15, i5 -15, i5 -15, i5 -15, i5 -16, i5 -16, i5 -16, i5 -16, i5 -16, i5 -16, i5 -16, i5 -16, i5 -16, i5 -16, i5 -16, i5 -16, i5 -16, i5 -16, i5 -16, i5 -16, i5 -16, i5 -16, i5 -16, i5 -16, i5 -16, i5 -16, i5 -16, i5 -16, i5 -16, i5 -16, i5 -16, i5 -16, i5 -16, i5 -16, i5 -16, i5 -16, i5 -16, i5 -16, i5 -16, i5 -16, i5 -16, i5 -16, i5 -16, i5 -16, i5 -16, i5 -16, i5 -16, i5 -16, i5 -16, i5 -16, i5 -16, i5 -16, i5 -16, i5 -16, i5 -16, i5 -16, i5 -16, i5 -16, i5 -16, i5 15, i5 15, i5 15, i5 15, i5 15, i5 15, i5 15, i5 15, i5 15, i5 15, i5 15, i5 15, i5 15, i5 15, i5 15, i5 15, i5 15, i5 15, i5 15, i5 15, i5 15, i5 15, i5 15, i5 15, i5 15, i5 15, i5 15, i5 15, i5 15, i5 15, i5 15, i5 15, i5 15, i5 15, i5 15, i5 15, i5 15, i5 15, i5 15, i5 15, i5 15, i5 15, i5 15, i5 15, i5 15, i5 15, i5 15, i5 15, i5 15, i5 15, i5 15, i5 15, i5 15, i5 15, i5 15, i5 14, i5 14, i5 14, i5 14, i5 14, i5 14, i5 14, i5 14, i5 14, i5 14, i5 14, i5 14, i5 14, i5 14, i5 14, i5 14, i5 14, i5 14, i5 14, i5 14, i5 14, i5 14, i5 14, i5 14, i5 14, i5 14, i5 14, i5 14, i5 14, i5 14, i5 14, i5 14, i5 14, i5 14, i5 14, i5 14, i5 14, i5 14, i5 14, i5 14, i5 14, i5 14, i5 14, i5 14, i5 14, i5 14, i5 14, i5 14, i5 14, i5 14, i5 14, i5 14, i5 14, i5 14, i5 14, i5 13, i5 13, i5 13, i5 13, i5 13, i5 13, i5 13, i5 13, i5 13, i5 13, i5 13, i5 13, i5 13, i5 13, i5 13, i5 13, i5 13, i5 13, i5 13, i5 13, i5 13, i5 13, i5 13, i5 13, i5 13, i5 13, i5 13, i5 13, i5 13, i5 13, i5 13, i5 13, i5 13, i5 13, i5 13, i5 13, i5 13, i5 13, i5 13, i5 13, i5 13, i5 13, i5 13, i5 13, i5 13, i5 13, i5 13, i5 13, i5 13, i5 13, i5 13, i5 13, i5 13, i5 13, i5 13, i5 12, i5 12, i5 12, i5 12, i5 12, i5 12, i5 12, i5 12, i5 12, i5 12, i5 12, i5 12, i5 12, i5 12, i5 12, i5 12, i5 12, i5 12, i5 12, i5 12, i5 12, i5 12, i5 12, i5 12, i5 12, i5 12, i5 12, i5 12, i5 12, i5 12, i5 12, i5 12, i5 12, i5 12, i5 12, i5 12, i5 12, i5 12, i5 12, i5 12, i5 12, i5 12, i5 12, i5 12, i5 12, i5 12, i5 12, i5 12, i5 12, i5 12, i5 12, i5 12, i5 12, i5 12, i5 12, i5 11, i5 11, i5 11, i5 11, i5 11, i5 11, i5 11, i5 11, i5 11, i5 11, i5 11, i5 11, i5 11, i5 11, i5 11, i5 11, i5 11, i5 11, i5 11, i5 11, i5 11, i5 11, i5 11, i5 11, i5 11, i5 11, i5 11, i5 11, i5 11, i5 11, i5 11, i5 11, i5 11, i5 11, i5 11, i5 11, i5 11, i5 11, i5 11, i5 11, i5 11, i5 11, i5 11, i5 11, i5 11, i5 11, i5 11, i5 11, i5 11, i5 11, i5 11, i5 11, i5 11, i5 11, i5 11, i5 11, i5 10, i5 10, i5 10, i5 10, i5 10, i5 10, i5 10, i5 10, i5 10, i5 10, i5 10, i5 10, i5 10, i5 10, i5 10, i5 10, i5 10, i5 10, i5 10, i5 10, i5 10, i5 10, i5 10, i5 10, i5 10, i5 10, i5 10, i5 10, i5 10, i5 10, i5 10, i5 10, i5 10, i5 10, i5 10, i5 10, i5 10, i5 10, i5 10, i5 10, i5 10, i5 10, i5 10, i5 10, i5 10, i5 10, i5 10, i5 10, i5 10, i5 10, i5 10, i5 10, i5 10, i5 10, i5 10, i5 9, i5 9, i5 9, i5 9, i5 9, i5 9, i5 9, i5 9, i5 9, i5 9, i5 9, i5 9, i5 9, i5 9, i5 9, i5 9, i5 9, i5 9, i5 9, i5 9, i5 9, i5 9, i5 9, i5 9, i5 9, i5 9, i5 9, i5 9, i5 9, i5 9, i5 9, i5 9, i5 9, i5 9, i5 9, i5 9, i5 9, i5 9, i5 9, i5 9, i5 9, i5 9, i5 9, i5 9, i5 9, i5 9, i5 9, i5 9, i5 9, i5 9, i5 9, i5 9, i5 9, i5 9, i5 9, i5 9, i5 8, i5 8, i5 8, i5 8, i5 8, i5 8, i5 8, i5 8, i5 8, i5 8, i5 8, i5 8, i5 8, i5 8, i5 8, i5 8, i5 8, i5 8, i5 8, i5 8, i5 8, i5 8, i5 8, i5 8, i5 8, i5 8, i5 8, i5 8, i5 8, i5 8, i5 8, i5 8, i5 8, i5 8, i5 8, i5 8, i5 8, i5 8, i5 8, i5 8, i5 8, i5 8, i5 8, i5 8, i5 8, i5 8, i5 8, i5 8, i5 8, i5 8, i5 8, i5 8, i5 8, i5 8, i5 8, i5 8, i5 7, i5 7, i5 7, i5 7, i5 7, i5 7, i5 7, i5 7, i5 7, i5 7, i5 7, i5 7, i5 7, i5 7, i5 7, i5 7, i5 7, i5 7, i5 7, i5 7, i5 7, i5 7, i5 7, i5 7, i5 7, i5 7, i5 7, i5 7, i5 7, i5 7, i5 7, i5 7, i5 7, i5 7, i5 7, i5 7, i5 7, i5 7, i5 7, i5 7, i5 7, i5 7, i5 7, i5 7, i5 7, i5 7, i5 7, i5 7, i5 7, i5 7, i5 7, i5 7, i5 7, i5 7, i5 7, i5 7, i5 6, i5 6, i5 6, i5 6, i5 6, i5 6, i5 6, i5 6, i5 6, i5 6, i5 6, i5 6, i5 6, i5 6, i5 6, i5 6, i5 6, i5 6, i5 6, i5 6, i5 6, i5 6, i5 6, i5 6, i5 6, i5 6, i5 6, i5 6, i5 6, i5 6, i5 6, i5 6, i5 6, i5 6, i5 6, i5 6, i5 6, i5 6, i5 6, i5 6, i5 6, i5 6, i5 6, i5 6, i5 6, i5 6, i5 6, i5 6, i5 6, i5 6, i5 6, i5 6, i5 6, i5 6, i5 6, i5 5, i5 5, i5 5, i5 5, i5 5, i5 5, i5 5, i5 5, i5 5, i5 5, i5 5, i5 5, i5 5, i5 5, i5 5, i5 5, i5 5, i5 5, i5 5, i5 5, i5 5, i5 5, i5 5, i5 5, i5 5, i5 5, i5 5, i5 5, i5 5, i5 5, i5 5, i5 5, i5 5, i5 5, i5 5, i5 5, i5 5, i5 5, i5 5, i5 5, i5 5, i5 5, i5 5, i5 5, i5 5, i5 5, i5 5, i5 5, i5 5, i5 5, i5 5, i5 5, i5 5, i5 5, i5 5, i5 5, i5 5, i5 4, i5 4, i5 4, i5 4, i5 4, i5 4, i5 4, i5 4, i5 4, i5 4, i5 4, i5 4, i5 4, i5 4, i5 4, i5 4, i5 4, i5 4, i5 4, i5 4, i5 4, i5 4, i5 4, i5 4, i5 4, i5 4, i5 4, i5 4, i5 4, i5 4, i5 4, i5 4, i5 4, i5 4, i5 4, i5 4, i5 4, i5 4, i5 4, i5 4, i5 4, i5 4, i5 4, i5 4, i5 4, i5 4, i5 4, i5 4, i5 4, i5 4, i5 4, i5 4, i5 4, i5 4, i5 4, i5 4, i5 3, i5 3, i5 3, i5 3, i5 3, i5 3, i5 3, i5 3, i5 3, i5 3, i5 3, i5 3, i5 3, i5 3, i5 3, i5 3, i5 3, i5 3, i5 3, i5 3, i5 3, i5 3, i5 3, i5 3, i5 3, i5 3, i5 3, i5 3, i5 3, i5 3, i5 3, i5 3, i5 3, i5 3, i5 3, i5 3, i5 3, i5 3, i5 3, i5 3, i5 3, i5 3, i5 3, i5 3, i5 3, i5 3, i5 3, i5 3, i5 3, i5 3, i5 3, i5 3, i5 3, i5 3, i5 3, i5 3, i5 2, i5 2, i5 2, i5 2, i5 2, i5 2, i5 2, i5 2, i5 2, i5 2, i5 2, i5 2, i5 2, i5 2, i5 2, i5 2, i5 2, i5 2, i5 2, i5 2, i5 2, i5 2, i5 2, i5 2, i5 2, i5 2, i5 2, i5 2, i5 2, i5 2, i5 2, i5 2, i5 2, i5 2, i5 2, i5 2, i5 2, i5 2, i5 2, i5 2, i5 2, i5 2, i5 2, i5 2, i5 2, i5 2, i5 2, i5 2, i5 2, i5 2, i5 2, i5 2, i5 2, i5 2, i5 2, i5 2, i5 1, i5 1, i5 1, i5 1, i5 1, i5 1, i5 1, i5 1, i5 1, i5 1, i5 1, i5 1, i5 1, i5 1, i5 1, i5 1, i5 1, i5 1, i5 1, i5 1, i5 1, i5 1, i5 1, i5 1, i5 1, i5 1, i5 1, i5 1, i5 1, i5 1, i5 1, i5 1, i5 1, i5 1, i5 1, i5 1, i5 1, i5 1, i5 1, i5 1, i5 1, i5 1, i5 1, i5 1, i5 1, i5 1, i5 1, i5 1, i5 1, i5 1, i5 1, i5 1, i5 1, i5 1, i5 1, i5 1, i5 1, i5 0, i5 0, i5 0, i5 0, i5 0, i5 0, i5 0, i5 0, i5 0, i5 0, i5 0, i5 0, i5 0, i5 0, i5 0, i5 0, i5 0, i5 0, i5 0, i5 0, i5 0, i5 0, i5 0, i5 0, i5 0, i5 0, i5 0, i5 0, i5 0, i5 0, i5 0, i5 0, i5 0, i5 0, i5 0, i5 0, i5 0, i5 0, i5 0, i5 0, i5 0, i5 0, i5 0, i5 0, i5 0, i5 0, i5 0, i5 0, i5 0, i5 0, i5 0, i5 0, i5 0, i5 0, i5 0, i5 0, i5 0] ; [#uses=1 type=[1024 x i5]*]
@delta_minus_LUT_str = internal unnamed_addr constant [16 x i8] c"delta_minus_LUT\00" ; [#uses=2 type=[16 x i8]*]
@p_str59 = private unnamed_addr constant [1 x i8] zeroinitializer, align 1 ; [#uses=1 type=[1 x i8]*]

; [#uses=1]
declare i9 @llvm.part.select.i9(i9, i32, i32) nounwind readnone

; [#uses=1]
declare i24 @llvm.part.select.i24(i24, i32, i32) nounwind readnone

; [#uses=1]
declare i23 @llvm.part.select.i23(i23, i32, i32) nounwind readnone

; [#uses=1]
declare i13 @llvm.part.select.i13(i13, i32, i32) nounwind readnone

; [#uses=7]
declare void @llvm.dbg.value(metadata, i64, metadata) nounwind readnone

; [#uses=1]
define weak void @"delta_minus_LUT<ap_fixed<11, 5, (ap_q_mode)5, (ap_o_mode)3, 0>, ap_fixed<14, 4, (ap_q_mode)5, (ap_o_mode)3, 0>, 1024>"(i11* %data_V, i14* %res_V) {
_ZNK13ap_fixed_baseILi77ELi71ELb1EL9ap_q_mode5EL9ap_o_mode3ELi0EEcviEv.exit_ifconv:
  call void (...)* @_ssdm_op_SpecBitsMap(i11* %data_V), !map !388
  call void (...)* @_ssdm_op_SpecBitsMap(i14* %res_V), !map !392
  call void (...)* @_ssdm_op_SpecTopModule([16 x i8]* @delta_minus_LUT_str) nounwind
  call void @llvm.dbg.value(metadata !{i11* %data_V}, i64 0, metadata !396), !dbg !9880 ; [debug line = 126:30] [debug variable = data.V]
  call void @llvm.dbg.value(metadata !{i14* %res_V}, i64 0, metadata !9881), !dbg !9890 ; [debug line = 126:43] [debug variable = res.V]
  call void (...)* @_ssdm_op_SpecPipeline(i32 -1, i32 1, i32 1, i32 0, [1 x i8]* @p_str59) nounwind, !dbg !9891 ; [debug line = 133:1]
  %data_V_read = call i11 @_ssdm_op_Read.ap_auto.i11P(i11* %data_V), !dbg !9893 ; [#uses=2 type=i11] [debug line = 1293:9@2279:0@136:18]
  %sext_cast = sext i11 %data_V_read to i24, !dbg !10182 ; [#uses=1 type=i24] [debug line = 1311:9@2279:0@136:18]
  %mul = mul i24 2185, %sext_cast, !dbg !10182    ; [#uses=2 type=i24] [debug line = 1311:9@2279:0@136:18]
  %tmp_1 = trunc i24 %mul to i23, !dbg !10182     ; [#uses=1 type=i23] [debug line = 1311:9@2279:0@136:18]
  %neg_mul = sub i23 0, %tmp_1, !dbg !10182       ; [#uses=1 type=i23] [debug line = 1311:9@2279:0@136:18]
  %tmp_6 = call i1 @_ssdm_op_BitSelect.i1.i11.i32(i11 %data_V_read, i32 10), !dbg !10182 ; [#uses=2 type=i1] [debug line = 1311:9@2279:0@136:18]
  %tmp_7 = call i8 @_ssdm_op_PartSelect.i8.i23.i32.i32(i23 %neg_mul, i32 15, i32 22), !dbg !10182 ; [#uses=1 type=i8] [debug line = 1311:9@2279:0@136:18]
  %tmp = sext i8 %tmp_7 to i12, !dbg !10182       ; [#uses=1 type=i12] [debug line = 1311:9@2279:0@136:18]
  %tmp_8 = call i9 @_ssdm_op_PartSelect.i9.i24.i32.i32(i24 %mul, i32 15, i32 23), !dbg !10182 ; [#uses=1 type=i9] [debug line = 1311:9@2279:0@136:18]
  %tmp_5 = sext i9 %tmp_8 to i12, !dbg !10182     ; [#uses=1 type=i12] [debug line = 1311:9@2279:0@136:18]
  %p_v = select i1 %tmp_6, i12 %tmp, i12 %tmp_5, !dbg !10182 ; [#uses=2 type=i12] [debug line = 1311:9@2279:0@136:18]
  %tmp_10 = trunc i12 %p_v to i9                  ; [#uses=1 type=i9]
  %neg_ti = sub i9 0, %tmp_10                     ; [#uses=1 type=i9]
  %tmp_11 = trunc i12 %p_v to i9                  ; [#uses=1 type=i9]
  %tmp_9 = select i1 %tmp_6, i9 %neg_ti, i9 %tmp_11, !dbg !10182 ; [#uses=1 type=i9] [debug line = 1311:9@2279:0@136:18]
  %r_V = sub i9 64, %tmp_9                        ; [#uses=3 type=i9]
  %tmp_2 = call i13 @_ssdm_op_BitConcatenate.i13.i9.i4(i9 %r_V, i4 0) ; [#uses=1 type=i13]
  %index = sext i13 %tmp_2 to i32, !dbg !10190    ; [#uses=1 type=i32] [debug line = 2606:64@1075:16@1220:16@136:18]
  call void @llvm.dbg.value(metadata !{i32 %index}, i64 0, metadata !10199), !dbg !10181 ; [debug line = 136:18] [debug variable = index]
  %tmp_12 = call i1 @_ssdm_op_BitSelect.i1.i9.i32(i9 %r_V, i32 8), !dbg !10200 ; [#uses=2 type=i1] [debug line = 138:5]
  %tmp_13 = call i3 @_ssdm_op_PartSelect.i3.i9.i32.i32(i9 %r_V, i32 6, i32 8), !dbg !10201 ; [#uses=1 type=i3] [debug line = 139:10]
  %icmp = icmp sgt i3 %tmp_13, 0, !dbg !10201     ; [#uses=1 type=i1] [debug line = 139:10]
  %tmp_3 = zext i32 %index to i64, !dbg !10202    ; [#uses=1 type=i64] [debug line = 140:10]
  call void @llvm.dbg.value(metadata !{i14* %res_V}, i64 0, metadata !10203), !dbg !10208 ; [debug line = 380:53@140:10] [debug variable = ssdm_int<14 + 1024 * 0, true>.V]
  %delta_minus_table1_a = getelementptr [1024 x i5]* @delta_minus_table1, i64 0, i64 %tmp_3, !dbg !10209 ; [#uses=1 type=i5*] [debug line = 382:9@140:10]
  %delta_minus_table1_l = load i5* %delta_minus_table1_a, align 1, !dbg !10209 ; [#uses=1 type=i5] [debug line = 382:9@140:10]
  %sel_tmp1 = xor i1 %tmp_12, true, !dbg !10200   ; [#uses=1 type=i1] [debug line = 138:5]
  %sel_tmp2 = and i1 %icmp, %sel_tmp1             ; [#uses=2 type=i1]
  %sel_tmp = select i1 %sel_tmp2, i5 0, i5 -14    ; [#uses=1 type=i5]
  %tmp_4 = or i1 %sel_tmp2, %tmp_12               ; [#uses=1 type=i1]
  %storemerge1 = select i1 %tmp_4, i5 %sel_tmp, i5 %delta_minus_table1_l ; [#uses=1 type=i5]
  %storemerge1_cast = zext i5 %storemerge1 to i14 ; [#uses=1 type=i14]
  call void @_ssdm_op_Write.ap_auto.i14P(i14* %res_V, i14 %storemerge1_cast), !dbg !10211 ; [debug line = 382:9@138:18]
  ret void, !dbg !10213                           ; [debug line = 142:5]
}

; [#uses=0]
define weak void @"delta_minus_LUT<ap_fixed<11, 5, (ap_q_mode)5, (ap_o_mode)3, 0>, ap_fixed<14, 4, (ap_q_mode)5, (ap_o_mode)3, 0> >"(i11* %data_V, i14* %res_V) {
  call void (...)* @_ssdm_op_SpecBitsMap(i11* %data_V), !map !388
  call void (...)* @_ssdm_op_SpecBitsMap(i14* %res_V), !map !392
  call void (...)* @_ssdm_op_SpecTopModule([16 x i8]* @delta_minus_LUT_str) nounwind
  call void @llvm.dbg.value(metadata !{i11* %data_V}, i64 0, metadata !10214), !dbg !10218 ; [debug line = 146:30] [debug variable = data.V]
  call void @llvm.dbg.value(metadata !{i14* %res_V}, i64 0, metadata !10219), !dbg !10221 ; [debug line = 146:43] [debug variable = res.V]
  call void @llvm.dbg.value(metadata !{i14* %res_V}, i64 0, metadata !10203), !dbg !10222 ; [debug line = 380:53@148:5] [debug variable = ssdm_int<14 + 1024 * 0, true>.V]
  call void @_ssdm_op_Write.ap_auto.i14P(i14* %res_V, i14 0), !dbg !10225 ; [debug line = 382:9@148:5]
  call void @"delta_minus_LUT<ap_fixed<11, 5, (ap_q_mode)5, (ap_o_mode)3, 0>, ap_fixed<14, 4, (ap_q_mode)5, (ap_o_mode)3, 0>, 1024>"(i11* %data_V, i14* %res_V), !dbg !10226 ; [debug line = 149:5]
  ret void, !dbg !10227                           ; [debug line = 151:5]
}

; [#uses=2]
define weak void @_ssdm_op_Write.ap_auto.i14P(i14*, i14) {
entry:
  store i14 %1, i14* %0
  ret void
}

; [#uses=2]
define weak void @_ssdm_op_SpecTopModule(...) {
entry:
  ret void
}

; [#uses=1]
define weak void @_ssdm_op_SpecPipeline(...) nounwind {
entry:
  ret void
}

; [#uses=4]
define weak void @_ssdm_op_SpecBitsMap(...) {
entry:
  ret void
}

; [#uses=1]
define weak i11 @_ssdm_op_Read.ap_auto.i11P(i11*) {
entry:
  %empty = load i11* %0                           ; [#uses=1 type=i11]
  ret i11 %empty
}

; [#uses=1]
define weak i9 @_ssdm_op_PartSelect.i9.i24.i32.i32(i24, i32, i32) nounwind readnone {
entry:
  %empty = call i24 @llvm.part.select.i24(i24 %0, i32 %1, i32 %2) ; [#uses=1 type=i24]
  %empty_10 = trunc i24 %empty to i9              ; [#uses=1 type=i9]
  ret i9 %empty_10
}

; [#uses=0]
declare i9 @_ssdm_op_PartSelect.i9.i12.i32.i32(i12, i32, i32) nounwind readnone

; [#uses=1]
define weak i8 @_ssdm_op_PartSelect.i8.i23.i32.i32(i23, i32, i32) nounwind readnone {
entry:
  %empty = call i23 @llvm.part.select.i23(i23 %0, i32 %1, i32 %2) ; [#uses=1 type=i23]
  %empty_11 = trunc i23 %empty to i8              ; [#uses=1 type=i8]
  ret i8 %empty_11
}

; [#uses=1]
define weak i3 @_ssdm_op_PartSelect.i3.i9.i32.i32(i9, i32, i32) nounwind readnone {
entry:
  %empty = call i9 @llvm.part.select.i9(i9 %0, i32 %1, i32 %2) ; [#uses=1 type=i9]
  %empty_12 = trunc i9 %empty to i3               ; [#uses=1 type=i3]
  ret i3 %empty_12
}

; [#uses=0]
define weak i3 @_ssdm_op_PartSelect.i3.i13.i32.i32(i13, i32, i32) nounwind readnone {
entry:
  %empty = call i13 @llvm.part.select.i13(i13 %0, i32 %1, i32 %2) ; [#uses=1 type=i13]
  %empty_13 = trunc i13 %empty to i3              ; [#uses=1 type=i3]
  ret i3 %empty_13
}

; [#uses=0]
declare i23 @_ssdm_op_PartSelect.i23.i24.i32.i32(i24, i32, i32) nounwind readnone

; [#uses=1]
define weak i1 @_ssdm_op_BitSelect.i1.i9.i32(i9, i32) nounwind readnone {
entry:
  %empty = trunc i32 %1 to i9                     ; [#uses=1 type=i9]
  %empty_14 = shl i9 1, %empty                    ; [#uses=1 type=i9]
  %empty_15 = and i9 %0, %empty_14                ; [#uses=1 type=i9]
  %empty_16 = icmp ne i9 %empty_15, 0             ; [#uses=1 type=i1]
  ret i1 %empty_16
}

; [#uses=0]
define weak i1 @_ssdm_op_BitSelect.i1.i13.i32(i13, i32) nounwind readnone {
entry:
  %empty = trunc i32 %1 to i13                    ; [#uses=1 type=i13]
  %empty_17 = shl i13 1, %empty                   ; [#uses=1 type=i13]
  %empty_18 = and i13 %0, %empty_17               ; [#uses=1 type=i13]
  %empty_19 = icmp ne i13 %empty_18, 0            ; [#uses=1 type=i1]
  ret i1 %empty_19
}

; [#uses=1]
define weak i1 @_ssdm_op_BitSelect.i1.i11.i32(i11, i32) nounwind readnone {
entry:
  %empty = trunc i32 %1 to i11                    ; [#uses=1 type=i11]
  %empty_20 = shl i11 1, %empty                   ; [#uses=1 type=i11]
  %empty_21 = and i11 %0, %empty_20               ; [#uses=1 type=i11]
  %empty_22 = icmp ne i11 %empty_21, 0            ; [#uses=1 type=i1]
  ret i1 %empty_22
}

; [#uses=1]
define weak i13 @_ssdm_op_BitConcatenate.i13.i9.i4(i9, i4) nounwind readnone {
entry:
  %empty = zext i9 %0 to i13                      ; [#uses=1 type=i13]
  %empty_23 = zext i4 %1 to i13                   ; [#uses=1 type=i13]
  %empty_24 = shl i13 %empty, 4                   ; [#uses=1 type=i13]
  %empty_25 = or i13 %empty_24, %empty_23         ; [#uses=1 type=i13]
  ret i13 %empty_25
}

; [#uses=1]
declare void @_GLOBAL__I_a() nounwind section ".text.startup"

!opencl.kernels = !{!0, !7, !13, !15, !21, !24, !27, !30, !33, !36, !39, !39, !42, !48, !42, !42, !42, !51, !51, !53, !53, !55, !42, !57, !57, !57, !59, !39, !39, !42, !42, !62, !42, !42, !42, !42, !42, !65, !65, !68, !42, !39, !39, !42, !70, !42, !42, !42, !72, !72, !74, !74, !76, !42, !42, !42, !78, !80, !42, !42, !42, !51, !51, !82, !82, !84, !42, !42, !42, !42, !42, !42, !85, !42, !42, !42, !42, !87, !87, !90, !42, !42, !42, !59, !39, !39, !42, !92, !94, !94, !96, !42, !42, !42, !42, !42, !98, !101, !103, !103, !42, !104, !104, !42, !42, !105, !96, !42, !42, !42, !42, !42, !107, !111, !111, !112, !104, !104, !114, !115, !42, !42, !42, !68, !42, !42, !117, !120, !122, !42, !42, !42, !85, !42, !42, !42, !68, !123, !125, !131, !42, !42, !42, !42, !42, !133, !135, !135, !42, !136, !136, !42, !42, !138, !42, !42, !140, !140, !140, !42, !142, !144, !144, !42, !145, !145, !42, !42, !146, !149, !149, !151, !151, !42, !42, !42, !152, !152, !151, !149, !149, !149, !42, !68, !68, !85, !154, !151, !151, !151, !155, !155, !155, !65, !65, !68, !85, !42, !157, !42, !159, !160, !162, !68, !42, !117, !85, !68, !164, !155, !155, !155, !42, !166, !168, !168, !42, !169, !169, !42, !42, !65, !65, !68, !170, !42, !172, !172, !42, !42, !175, !177, !177, !180, !182, !182, !42, !42, !185, !182, !42, !187, !187, !190, !192, !192, !192, !59, !39, !39, !42, !194, !96, !42, !42, !152, !152, !152, !196, !198, !198, !131, !65, !65, !68, !199, !199, !199, !196, !42, !42, !42, !42, !196, !42, !42, !42, !42, !42, !196, !201, !201, !42, !198, !203, !203, !42, !42, !42, !42, !42, !205, !205, !207, !207, !42, !42, !42, !59, !39, !39, !42, !209, !96, !42, !42, !42, !211, !213, !215, !215, !42, !104, !104, !42, !42, !216, !96, !42, !42, !42, !42, !42, !218, !111, !111, !112, !104, !104, !220, !220, !220, !59, !39, !39, !222, !224, !224, !226, !42, !42, !228, !42, !42, !42, !42, !42, !229, !138, !231, !231, !233, !196, !198, !198, !42, !169, !169, !42, !42, !235, !235, !42, !42, !42, !59, !39, !39, !42, !237, !96, !42, !42, !239, !96, !42, !42, !42, !241, !243, !245, !245, !42, !104, !104, !42, !42, !246, !96, !42, !42, !42, !42, !42, !233, !248, !248, !68, !85, !235, !235, !233, !250, !250, !250, !196, !252, !122, !111, !111, !112, !104, !104, !169, !254, !96, !96, !42, !42, !42, !42, !42, !256, !256, !258, !258, !218, !138, !136, !136, !231, !231, !233, !237, !96, !104, !104, !235, !235, !233, !260, !260, !169, !138, !262, !262, !262, !42, !264, !264, !265, !122, !267, !267, !269, !111, !111, !112, !104, !104, !264, !271, !273, !65, !65, !68, !85, !275, !277, !42, !42, !42, !42, !53, !53, !42, !279, !281, !283, !283, !285, !122, !42, !42, !286, !288, !290, !292, !294, !74, !74, !296, !298, !42, !300, !302, !304, !306, !308, !310, !310, !310, !59, !39, !39, !42, !312, !96, !42, !42, !42, !42, !42, !196, !198, !198, !42, !42, !42, !42, !314, !316, !318, !318, !320, !42, !322, !324, !326, !328, !328, !330, !122, !42, !42, !42, !331, !333, !335, !42, !65, !65, !68, !85, !337, !339, !42, !288, !290, !42, !42, !42, !53, !53, !51, !51, !341, !343, !345, !345, !347, !122, !42, !42, !42, !348, !350, !352, !352, !352, !59, !354, !96, !42, !42, !356, !96, !352, !352, !231, !231, !233, !358, !42, !260, !360, !362, !363, !224, !224, !252, !122, !42, !42, !42, !65, !65, !365, !365, !42, !42, !365, !365, !42, !367, !369, !371, !373, !375, !377, !365, !365, !42, !42, !365, !365, !42, !365, !365, !42, !365, !365, !42, !65, !65, !68, !85, !42, !42, !379}
!hls.encrypted.func = !{}
!llvm.map.gv = !{!381}

!0 = metadata !{null, metadata !1, metadata !2, metadata !3, metadata !4, metadata !5, metadata !6}
!1 = metadata !{metadata !"kernel_arg_addr_space", i32 0, i32 0}
!2 = metadata !{metadata !"kernel_arg_access_qual", metadata !"none", metadata !"none"}
!3 = metadata !{metadata !"kernel_arg_type", metadata !"struct HwTrack &", metadata !"etaphiglobal_t &"}
!4 = metadata !{metadata !"kernel_arg_type_qual", metadata !"", metadata !""}
!5 = metadata !{metadata !"kernel_arg_name", metadata !"in", metadata !"outEtaPhi"}
!6 = metadata !{metadata !"reqd_work_group_size", i32 1, i32 1, i32 1}
!7 = metadata !{null, metadata !8, metadata !9, metadata !10, metadata !11, metadata !12, metadata !6}
!8 = metadata !{metadata !"kernel_arg_addr_space", i32 0, i32 0, i32 0}
!9 = metadata !{metadata !"kernel_arg_access_qual", metadata !"none", metadata !"none", metadata !"none"}
!10 = metadata !{metadata !"kernel_arg_type", metadata !"struct HwTrack &", metadata !"const struct HwMuon &", metadata !"struct HwTrackMuon &"}
!11 = metadata !{metadata !"kernel_arg_type_qual", metadata !"", metadata !"", metadata !""}
!12 = metadata !{metadata !"kernel_arg_name", metadata !"inTrack", metadata !"inMuon", metadata !"outTrackMuon"}
!13 = metadata !{null, metadata !8, metadata !9, metadata !14, metadata !11, metadata !12, metadata !6}
!14 = metadata !{metadata !"kernel_arg_type", metadata !"struct HwPropTrack &", metadata !"const struct HwMuon &", metadata !"struct HwTrackMuon &"}
!15 = metadata !{null, metadata !16, metadata !17, metadata !18, metadata !19, metadata !20, metadata !6}
!16 = metadata !{metadata !"kernel_arg_addr_space", i32 0}
!17 = metadata !{metadata !"kernel_arg_access_qual", metadata !"none"}
!18 = metadata !{metadata !"kernel_arg_type", metadata !"struct HwTrack &"}
!19 = metadata !{metadata !"kernel_arg_type_qual", metadata !""}
!20 = metadata !{metadata !"kernel_arg_name", metadata !"inTrack"}
!21 = metadata !{null, metadata !1, metadata !2, metadata !22, metadata !4, metadata !23, metadata !6}
!22 = metadata !{metadata !"kernel_arg_type", metadata !"invpt_t", metadata !"pt_t &"}
!23 = metadata !{metadata !"kernel_arg_name", metadata !"hwRinv", metadata !"outPt"}
!24 = metadata !{null, metadata !1, metadata !2, metadata !25, metadata !4, metadata !26, metadata !6}
!25 = metadata !{metadata !"kernel_arg_type", metadata !"eta_t", metadata !"eta_t &"}
!26 = metadata !{metadata !"kernel_arg_name", metadata !"hwSinhEta", metadata !"outEta"}
!27 = metadata !{null, metadata !8, metadata !9, metadata !28, metadata !11, metadata !29, metadata !6}
!28 = metadata !{metadata !"kernel_arg_type", metadata !"phi_t", metadata !"sector_t", metadata !"phiglobal_t &"}
!29 = metadata !{metadata !"kernel_arg_name", metadata !"hwPhi", metadata !"hwSector", metadata !"hwPhiGlobal"}
!30 = metadata !{null, metadata !1, metadata !2, metadata !31, metadata !4, metadata !32, metadata !6}
!31 = metadata !{metadata !"kernel_arg_type", metadata !"std::ostream &", metadata !"const ap_int_base<19, true> &"}
!32 = metadata !{metadata !"kernel_arg_name", metadata !"os", metadata !"x"}
!33 = metadata !{null, metadata !1, metadata !2, metadata !34, metadata !4, metadata !35, metadata !6}
!34 = metadata !{metadata !"kernel_arg_type", metadata !"struct ap_int_base<33, true, true>", metadata !"struct ap_fixed<19, 3, 5, 3, 0> &"}
!35 = metadata !{metadata !"kernel_arg_name", metadata !"sector", metadata !"result"}
!36 = metadata !{null, metadata !1, metadata !2, metadata !37, metadata !4, metadata !38, metadata !6}
!37 = metadata !{metadata !"kernel_arg_type", metadata !"const ap_int_base<33, true> &", metadata !"int"}
!38 = metadata !{metadata !"kernel_arg_name", metadata !"op", metadata !"i_op"}
!39 = metadata !{null, metadata !16, metadata !17, metadata !40, metadata !19, metadata !41, metadata !6}
!40 = metadata !{metadata !"kernel_arg_type", metadata !"int"}
!41 = metadata !{metadata !"kernel_arg_name", metadata !"op"}
!42 = metadata !{null, metadata !43, metadata !44, metadata !45, metadata !46, metadata !47, metadata !6}
!43 = metadata !{metadata !"kernel_arg_addr_space"}
!44 = metadata !{metadata !"kernel_arg_access_qual"}
!45 = metadata !{metadata !"kernel_arg_type"}
!46 = metadata !{metadata !"kernel_arg_type_qual"}
!47 = metadata !{metadata !"kernel_arg_name"}
!48 = metadata !{null, metadata !1, metadata !2, metadata !49, metadata !4, metadata !50, metadata !6}
!49 = metadata !{metadata !"kernel_arg_type", metadata !"const ap_int_base<33, true> &", metadata !"const ap_int_base<32, true> &"}
!50 = metadata !{metadata !"kernel_arg_name", metadata !"op", metadata !"op2"}
!51 = metadata !{null, metadata !16, metadata !17, metadata !52, metadata !19, metadata !41, metadata !6}
!52 = metadata !{metadata !"kernel_arg_type", metadata !"const ap_int_base<32, true> &"}
!53 = metadata !{null, metadata !16, metadata !17, metadata !54, metadata !19, metadata !41, metadata !6}
!54 = metadata !{metadata !"kernel_arg_type", metadata !"const ap_int_base<33, true> &"}
!55 = metadata !{null, metadata !1, metadata !2, metadata !56, metadata !4, metadata !38, metadata !6}
!56 = metadata !{metadata !"kernel_arg_type", metadata !"const ap_int_base<34, true> &", metadata !"double"}
!57 = metadata !{null, metadata !16, metadata !17, metadata !58, metadata !19, metadata !41, metadata !6}
!58 = metadata !{metadata !"kernel_arg_type", metadata !"const ap_fixed_base<28, 18, true, (enum ap_q_mode)5, (enum ap_o_mode)3, 0> &"}
!59 = metadata !{null, metadata !16, metadata !17, metadata !60, metadata !19, metadata !61, metadata !6}
!60 = metadata !{metadata !"kernel_arg_type", metadata !"_Bool"}
!61 = metadata !{metadata !"kernel_arg_name", metadata !"Cnative"}
!62 = metadata !{null, metadata !16, metadata !17, metadata !63, metadata !19, metadata !64, metadata !6}
!63 = metadata !{metadata !"kernel_arg_type", metadata !"const ap_fixed_base<14, 9, true, (enum ap_q_mode)5, (enum ap_o_mode)3, 0> &"}
!64 = metadata !{metadata !"kernel_arg_name", metadata !"op2"}
!65 = metadata !{null, metadata !16, metadata !17, metadata !66, metadata !19, metadata !67, metadata !6}
!66 = metadata !{metadata !"kernel_arg_type", metadata !"double"}
!67 = metadata !{metadata !"kernel_arg_name", metadata !"v"}
!68 = metadata !{null, metadata !16, metadata !17, metadata !66, metadata !19, metadata !69, metadata !6}
!69 = metadata !{metadata !"kernel_arg_name", metadata !"d"}
!70 = metadata !{null, metadata !1, metadata !2, metadata !71, metadata !4, metadata !50, metadata !6}
!71 = metadata !{metadata !"kernel_arg_type", metadata !"const ap_int_base<1, false> &", metadata !"const ap_int_base<54, true> &"}
!72 = metadata !{null, metadata !16, metadata !17, metadata !73, metadata !19, metadata !41, metadata !6}
!73 = metadata !{metadata !"kernel_arg_type", metadata !"const ap_int_base<54, true> &"}
!74 = metadata !{null, metadata !16, metadata !17, metadata !75, metadata !19, metadata !41, metadata !6}
!75 = metadata !{metadata !"kernel_arg_type", metadata !"const ap_int_base<1, false> &"}
!76 = metadata !{null, metadata !16, metadata !17, metadata !77, metadata !19, metadata !64, metadata !6}
!77 = metadata !{metadata !"kernel_arg_type", metadata !"const ap_int_base<55, true> &"}
!78 = metadata !{null, metadata !1, metadata !2, metadata !79, metadata !4, metadata !38, metadata !6}
!79 = metadata !{metadata !"kernel_arg_type", metadata !"const ap_int_base<11, false> &", metadata !"int"}
!80 = metadata !{null, metadata !1, metadata !2, metadata !81, metadata !4, metadata !50, metadata !6}
!81 = metadata !{metadata !"kernel_arg_type", metadata !"const ap_int_base<11, false> &", metadata !"const ap_int_base<32, true> &"}
!82 = metadata !{null, metadata !16, metadata !17, metadata !83, metadata !19, metadata !41, metadata !6}
!83 = metadata !{metadata !"kernel_arg_type", metadata !"const ap_int_base<11, false> &"}
!84 = metadata !{null, metadata !16, metadata !17, metadata !54, metadata !19, metadata !64, metadata !6}
!85 = metadata !{null, metadata !16, metadata !17, metadata !66, metadata !19, metadata !86, metadata !6}
!86 = metadata !{metadata !"kernel_arg_name", metadata !"pf"}
!87 = metadata !{null, metadata !1, metadata !2, metadata !88, metadata !4, metadata !89, metadata !6}
!88 = metadata !{metadata !"kernel_arg_type", metadata !"struct ap_fixed<24, 2, 5, 3, 0> &", metadata !"struct ap_fixed<14, 9, 5, 3, 0> &"}
!89 = metadata !{metadata !"kernel_arg_name", metadata !"data", metadata !"res"}
!90 = metadata !{null, metadata !1, metadata !2, metadata !91, metadata !4, metadata !32, metadata !6}
!91 = metadata !{metadata !"kernel_arg_type", metadata !"std::ostream &", metadata !"const ap_fixed_base<14, 9, true, (enum ap_q_mode)5, (enum ap_o_mode)3, 0> &"}
!92 = metadata !{null, metadata !1, metadata !2, metadata !93, metadata !4, metadata !38, metadata !6}
!93 = metadata !{metadata !"kernel_arg_type", metadata !"const ap_fixed_base<24, 2, true, (enum ap_q_mode)5, (enum ap_o_mode)3, 0> &", metadata !"int"}
!94 = metadata !{null, metadata !16, metadata !17, metadata !40, metadata !19, metadata !95, metadata !6}
!95 = metadata !{metadata !"kernel_arg_name", metadata !"i_op"}
!96 = metadata !{null, metadata !16, metadata !17, metadata !97, metadata !19, metadata !64, metadata !6}
!97 = metadata !{metadata !"kernel_arg_type", metadata !"const ap_fixed_base<32, 32, true, (enum ap_q_mode)5, (enum ap_o_mode)3, 0> &"}
!98 = metadata !{null, metadata !1, metadata !2, metadata !99, metadata !4, metadata !100, metadata !6}
!99 = metadata !{metadata !"kernel_arg_type", metadata !"int", metadata !"const ap_fixed_base<56, 34, true, (enum ap_q_mode)5, (enum ap_o_mode)3, 0> &"}
!100 = metadata !{metadata !"kernel_arg_name", metadata !"i_op", metadata !"op"}
!101 = metadata !{null, metadata !16, metadata !17, metadata !102, metadata !19, metadata !64, metadata !6}
!102 = metadata !{metadata !"kernel_arg_type", metadata !"const ap_fixed_base<56, 34, true, (enum ap_q_mode)5, (enum ap_o_mode)3, 0> &"}
!103 = metadata !{null, metadata !16, metadata !17, metadata !102, metadata !19, metadata !41, metadata !6}
!104 = metadata !{null, metadata !16, metadata !17, metadata !97, metadata !19, metadata !41, metadata !6}
!105 = metadata !{null, metadata !1, metadata !2, metadata !106, metadata !4, metadata !38, metadata !6}
!106 = metadata !{metadata !"kernel_arg_type", metadata !"const ap_fixed_base<57, 35, true, (enum ap_q_mode)5, (enum ap_o_mode)3, 0> &", metadata !"int"}
!107 = metadata !{null, metadata !108, metadata !17, metadata !109, metadata !19, metadata !110, metadata !6}
!108 = metadata !{metadata !"kernel_arg_addr_space", i32 1}
!109 = metadata !{metadata !"kernel_arg_type", metadata !"struct ap_fixed<14, 9, 5, 3, 0>*"}
!110 = metadata !{metadata !"kernel_arg_name", metadata !"table_out"}
!111 = metadata !{null, metadata !16, metadata !17, metadata !40, metadata !19, metadata !67, metadata !6}
!112 = metadata !{null, metadata !16, metadata !17, metadata !40, metadata !19, metadata !113, metadata !6}
!113 = metadata !{metadata !"kernel_arg_name", metadata !"b"}
!114 = metadata !{null, metadata !16, metadata !17, metadata !63, metadata !19, metadata !41, metadata !6}
!115 = metadata !{null, metadata !16, metadata !17, metadata !116, metadata !19, metadata !41, metadata !6}
!116 = metadata !{metadata !"kernel_arg_type", metadata !"const ap_fixed<14, 9, (enum ap_q_mode)5, (enum ap_o_mode)3, 0> &"}
!117 = metadata !{null, metadata !16, metadata !17, metadata !118, metadata !19, metadata !119, metadata !6}
!118 = metadata !{metadata !"kernel_arg_type", metadata !"ulong long"}
!119 = metadata !{metadata !"kernel_arg_name", metadata !"pi"}
!120 = metadata !{null, metadata !1, metadata !2, metadata !121, metadata !4, metadata !50, metadata !6}
!121 = metadata !{metadata !"kernel_arg_type", metadata !"ap_int_base<11, true> &", metadata !"int"}
!122 = metadata !{null, metadata !16, metadata !17, metadata !52, metadata !19, metadata !64, metadata !6}
!123 = metadata !{null, metadata !1, metadata !2, metadata !124, metadata !4, metadata !32, metadata !6}
!124 = metadata !{metadata !"kernel_arg_type", metadata !"std::ostream &", metadata !"const ap_fixed_base<9, 3, true, (enum ap_q_mode)5, (enum ap_o_mode)3, 0> &"}
!125 = metadata !{null, metadata !126, metadata !127, metadata !128, metadata !129, metadata !130, metadata !6}
!126 = metadata !{metadata !"kernel_arg_addr_space", i32 0, i32 0, i32 0, i32 0}
!127 = metadata !{metadata !"kernel_arg_access_qual", metadata !"none", metadata !"none", metadata !"none", metadata !"none"}
!128 = metadata !{metadata !"kernel_arg_type", metadata !"struct ap_fixed<14, 4, 5, 3, 0>", metadata !"struct ap_fixed<23, 3, 5, 3, 0>", metadata !"struct ap_fixed<10, 4, 5, 3, 0>", metadata !"struct ap_fixed<9, 3, 5, 3, 0>"}
!129 = metadata !{metadata !"kernel_arg_type_qual", metadata !"", metadata !"", metadata !"", metadata !""}
!130 = metadata !{metadata !"kernel_arg_name", metadata !"eta1", metadata !"phi1", metadata !"eta2", metadata !"phi2"}
!131 = metadata !{null, metadata !16, metadata !17, metadata !132, metadata !19, metadata !64, metadata !6}
!132 = metadata !{metadata !"kernel_arg_type", metadata !"const ap_fixed_base<23, 3, true, (enum ap_q_mode)5, (enum ap_o_mode)3, 0> &"}
!133 = metadata !{null, metadata !16, metadata !17, metadata !134, metadata !19, metadata !64, metadata !6}
!134 = metadata !{metadata !"kernel_arg_type", metadata !"const ap_fixed_base<46, 6, true, (enum ap_q_mode)5, (enum ap_o_mode)3, 0> &"}
!135 = metadata !{null, metadata !16, metadata !17, metadata !134, metadata !19, metadata !41, metadata !6}
!136 = metadata !{null, metadata !16, metadata !17, metadata !137, metadata !19, metadata !41, metadata !6}
!137 = metadata !{metadata !"kernel_arg_type", metadata !"const ap_fixed_base<28, 8, true, (enum ap_q_mode)5, (enum ap_o_mode)3, 0> &"}
!138 = metadata !{null, metadata !16, metadata !17, metadata !139, metadata !19, metadata !64, metadata !6}
!139 = metadata !{metadata !"kernel_arg_type", metadata !"const ap_fixed_base<14, 4, true, (enum ap_q_mode)5, (enum ap_o_mode)3, 0> &"}
!140 = metadata !{null, metadata !16, metadata !17, metadata !141, metadata !19, metadata !41, metadata !6}
!141 = metadata !{metadata !"kernel_arg_type", metadata !"const ap_fixed_base<49, 9, true, (enum ap_q_mode)5, (enum ap_o_mode)3, 0> &"}
!142 = metadata !{null, metadata !16, metadata !17, metadata !143, metadata !19, metadata !64, metadata !6}
!143 = metadata !{metadata !"kernel_arg_type", metadata !"const ap_fixed_base<9, 3, true, (enum ap_q_mode)5, (enum ap_o_mode)3, 0> &"}
!144 = metadata !{null, metadata !16, metadata !17, metadata !143, metadata !19, metadata !41, metadata !6}
!145 = metadata !{null, metadata !16, metadata !17, metadata !132, metadata !19, metadata !41, metadata !6}
!146 = metadata !{null, metadata !16, metadata !17, metadata !147, metadata !19, metadata !148, metadata !6}
!147 = metadata !{metadata !"kernel_arg_type", metadata !"struct ap_fixed_base<24, 4, true, 5, 3, 0>"}
!148 = metadata !{metadata !"kernel_arg_name", metadata !"outPhi"}
!149 = metadata !{null, metadata !16, metadata !17, metadata !150, metadata !19, metadata !64, metadata !6}
!150 = metadata !{metadata !"kernel_arg_type", metadata !"const ap_fixed_base<24, 4, true, (enum ap_q_mode)5, (enum ap_o_mode)3, 0> &"}
!151 = metadata !{null, metadata !16, metadata !17, metadata !150, metadata !19, metadata !41, metadata !6}
!152 = metadata !{null, metadata !16, metadata !17, metadata !153, metadata !19, metadata !41, metadata !6}
!153 = metadata !{metadata !"kernel_arg_type", metadata !"const ap_fixed_base<25, 5, true, (enum ap_q_mode)5, (enum ap_o_mode)3, 0> &"}
!154 = metadata !{null, metadata !16, metadata !17, metadata !153, metadata !19, metadata !64, metadata !6}
!155 = metadata !{null, metadata !16, metadata !17, metadata !156, metadata !19, metadata !41, metadata !6}
!156 = metadata !{metadata !"kernel_arg_type", metadata !"const ap_fixed_base<15, 5, true, (enum ap_q_mode)5, (enum ap_o_mode)3, 0> &"}
!157 = metadata !{null, metadata !1, metadata !2, metadata !158, metadata !4, metadata !38, metadata !6}
!158 = metadata !{metadata !"kernel_arg_type", metadata !"const ap_int_base<10, false> &", metadata !"double"}
!159 = metadata !{null, metadata !16, metadata !17, metadata !66, metadata !19, metadata !148, metadata !6}
!160 = metadata !{null, metadata !16, metadata !17, metadata !161, metadata !19, metadata !64, metadata !6}
!161 = metadata !{metadata !"kernel_arg_type", metadata !"const ap_uint<10> &"}
!162 = metadata !{null, metadata !16, metadata !17, metadata !163, metadata !19, metadata !64, metadata !6}
!163 = metadata !{metadata !"kernel_arg_type", metadata !"const ap_int<9> &"}
!164 = metadata !{null, metadata !1, metadata !2, metadata !165, metadata !4, metadata !32, metadata !6}
!165 = metadata !{metadata !"kernel_arg_type", metadata !"std::ostream &", metadata !"const ap_fixed_base<10, 4, true, (enum ap_q_mode)5, (enum ap_o_mode)3, 0> &"}
!166 = metadata !{null, metadata !16, metadata !17, metadata !167, metadata !19, metadata !64, metadata !6}
!167 = metadata !{metadata !"kernel_arg_type", metadata !"const ap_fixed_base<10, 4, true, (enum ap_q_mode)5, (enum ap_o_mode)3, 0> &"}
!168 = metadata !{null, metadata !16, metadata !17, metadata !167, metadata !19, metadata !41, metadata !6}
!169 = metadata !{null, metadata !16, metadata !17, metadata !139, metadata !19, metadata !41, metadata !6}
!170 = metadata !{null, metadata !16, metadata !17, metadata !40, metadata !19, metadata !171, metadata !6}
!171 = metadata !{metadata !"kernel_arg_name", metadata !"x"}
!172 = metadata !{null, metadata !16, metadata !17, metadata !173, metadata !19, metadata !174, metadata !6}
!173 = metadata !{metadata !"kernel_arg_type", metadata !"size_t"}
!174 = metadata !{metadata !"kernel_arg_name", metadata !"__pos"}
!175 = metadata !{null, metadata !16, metadata !17, metadata !173, metadata !19, metadata !176, metadata !6}
!176 = metadata !{metadata !"kernel_arg_name", metadata !"__position"}
!177 = metadata !{null, metadata !1, metadata !2, metadata !178, metadata !4, metadata !179, metadata !6}
!178 = metadata !{metadata !"kernel_arg_type", metadata !"class std::bitset<9> &", metadata !"size_t"}
!179 = metadata !{metadata !"kernel_arg_name", metadata !"__b", metadata !"__pos"}
!180 = metadata !{null, metadata !16, metadata !17, metadata !173, metadata !19, metadata !181, metadata !6}
!181 = metadata !{metadata !"kernel_arg_name", metadata !""}
!182 = metadata !{null, metadata !16, metadata !17, metadata !183, metadata !19, metadata !184, metadata !6}
!183 = metadata !{metadata !"kernel_arg_type", metadata !"ulong"}
!184 = metadata !{metadata !"kernel_arg_name", metadata !"__val"}
!185 = metadata !{null, metadata !16, metadata !17, metadata !186, metadata !19, metadata !184, metadata !6}
!186 = metadata !{metadata !"kernel_arg_type", metadata !"_WordT &"}
!187 = metadata !{null, metadata !1, metadata !2, metadata !188, metadata !4, metadata !189, metadata !6}
!188 = metadata !{metadata !"kernel_arg_type", metadata !"const struct ap_int<14> &", metadata !"const struct ap_int<23> &"}
!189 = metadata !{metadata !"kernel_arg_name", metadata !"__a", metadata !"__b"}
!190 = metadata !{null, metadata !1, metadata !2, metadata !191, metadata !4, metadata !32, metadata !6}
!191 = metadata !{metadata !"kernel_arg_type", metadata !"std::ostream &", metadata !"const ap_fixed_base<23, 3, true, (enum ap_q_mode)5, (enum ap_o_mode)3, 0> &"}
!192 = metadata !{null, metadata !16, metadata !17, metadata !193, metadata !19, metadata !41, metadata !6}
!193 = metadata !{metadata !"kernel_arg_type", metadata !"const ap_fixed_base<55, 35, true, (enum ap_q_mode)5, (enum ap_o_mode)3, 0> &"}
!194 = metadata !{null, metadata !1, metadata !2, metadata !195, metadata !4, metadata !38, metadata !6}
!195 = metadata !{metadata !"kernel_arg_type", metadata !"const ap_fixed_base<23, 3, true, (enum ap_q_mode)5, (enum ap_o_mode)3, 0> &", metadata !"int"}
!196 = metadata !{null, metadata !16, metadata !17, metadata !197, metadata !19, metadata !64, metadata !6}
!197 = metadata !{metadata !"kernel_arg_type", metadata !"const ap_fixed_base<19, 3, true, (enum ap_q_mode)5, (enum ap_o_mode)3, 0> &"}
!198 = metadata !{null, metadata !16, metadata !17, metadata !197, metadata !19, metadata !41, metadata !6}
!199 = metadata !{null, metadata !16, metadata !17, metadata !200, metadata !19, metadata !41, metadata !6}
!200 = metadata !{metadata !"kernel_arg_type", metadata !"const ap_fixed_base<57, 9, true, (enum ap_q_mode)5, (enum ap_o_mode)3, 0> &"}
!201 = metadata !{null, metadata !16, metadata !17, metadata !202, metadata !19, metadata !41, metadata !6}
!202 = metadata !{metadata !"kernel_arg_type", metadata !"const ap_fixed_base<38, 6, true, (enum ap_q_mode)5, (enum ap_o_mode)3, 0> &"}
!203 = metadata !{null, metadata !16, metadata !17, metadata !204, metadata !19, metadata !64, metadata !6}
!204 = metadata !{metadata !"kernel_arg_type", metadata !"const ap_fixed_base<24, 2, true, (enum ap_q_mode)5, (enum ap_o_mode)3, 0> &"}
!205 = metadata !{null, metadata !16, metadata !17, metadata !206, metadata !19, metadata !41, metadata !6}
!206 = metadata !{metadata !"kernel_arg_type", metadata !"const ap_fixed_base<43, 5, true, (enum ap_q_mode)5, (enum ap_o_mode)3, 0> &"}
!207 = metadata !{null, metadata !1, metadata !2, metadata !208, metadata !4, metadata !89, metadata !6}
!208 = metadata !{metadata !"kernel_arg_type", metadata !"struct ap_fixed<14, 4, 5, 3, 0> &", metadata !"struct ap_fixed<19, 3, 5, 3, 0> &"}
!209 = metadata !{null, metadata !1, metadata !2, metadata !210, metadata !4, metadata !38, metadata !6}
!210 = metadata !{metadata !"kernel_arg_type", metadata !"const ap_fixed_base<46, 36, true, (enum ap_q_mode)5, (enum ap_o_mode)3, 0> &", metadata !"int"}
!211 = metadata !{null, metadata !1, metadata !2, metadata !212, metadata !4, metadata !100, metadata !6}
!212 = metadata !{metadata !"kernel_arg_type", metadata !"int", metadata !"const ap_fixed_base<47, 37, true, (enum ap_q_mode)5, (enum ap_o_mode)3, 0> &"}
!213 = metadata !{null, metadata !16, metadata !17, metadata !214, metadata !19, metadata !64, metadata !6}
!214 = metadata !{metadata !"kernel_arg_type", metadata !"const ap_fixed_base<47, 37, true, (enum ap_q_mode)5, (enum ap_o_mode)3, 0> &"}
!215 = metadata !{null, metadata !16, metadata !17, metadata !214, metadata !19, metadata !41, metadata !6}
!216 = metadata !{null, metadata !1, metadata !2, metadata !217, metadata !4, metadata !38, metadata !6}
!217 = metadata !{metadata !"kernel_arg_type", metadata !"const ap_fixed_base<48, 38, true, (enum ap_q_mode)5, (enum ap_o_mode)3, 0> &", metadata !"int"}
!218 = metadata !{null, metadata !108, metadata !17, metadata !219, metadata !19, metadata !110, metadata !6}
!219 = metadata !{metadata !"kernel_arg_type", metadata !"struct ap_fixed<19, 3, 5, 3, 0>*"}
!220 = metadata !{null, metadata !16, metadata !17, metadata !221, metadata !19, metadata !41, metadata !6}
!221 = metadata !{metadata !"kernel_arg_type", metadata !"const ap_fixed_base<29, 19, true, (enum ap_q_mode)5, (enum ap_o_mode)3, 0> &"}
!222 = metadata !{null, metadata !1, metadata !2, metadata !223, metadata !4, metadata !38, metadata !6}
!223 = metadata !{metadata !"kernel_arg_type", metadata !"const ap_fixed_base<15, 5, true, (enum ap_q_mode)5, (enum ap_o_mode)3, 0> &", metadata !"const ap_int_base<14, true> &"}
!224 = metadata !{null, metadata !16, metadata !17, metadata !225, metadata !19, metadata !41, metadata !6}
!225 = metadata !{metadata !"kernel_arg_type", metadata !"const ap_int_base<14, true> &"}
!226 = metadata !{null, metadata !16, metadata !17, metadata !227, metadata !19, metadata !41, metadata !6}
!227 = metadata !{metadata !"kernel_arg_type", metadata !"const ap_fixed_base<14, 14, true, (enum ap_q_mode)5, (enum ap_o_mode)3, 0> &"}
!228 = metadata !{null, metadata !16, metadata !17, metadata !227, metadata !19, metadata !64, metadata !6}
!229 = metadata !{null, metadata !1, metadata !2, metadata !230, metadata !4, metadata !32, metadata !6}
!230 = metadata !{metadata !"kernel_arg_type", metadata !"std::ostream &", metadata !"const ap_fixed_base<15, 5, true, (enum ap_q_mode)5, (enum ap_o_mode)3, 0> &"}
!231 = metadata !{null, metadata !1, metadata !2, metadata !232, metadata !4, metadata !89, metadata !6}
!232 = metadata !{metadata !"kernel_arg_type", metadata !"struct ap_fixed<14, 4, 5, 3, 0> &", metadata !"struct ap_fixed<14, 4, 5, 3, 0> &"}
!233 = metadata !{null, metadata !108, metadata !17, metadata !234, metadata !19, metadata !110, metadata !6}
!234 = metadata !{metadata !"kernel_arg_type", metadata !"struct ap_fixed<14, 4, 5, 3, 0>*"}
!235 = metadata !{null, metadata !1, metadata !2, metadata !236, metadata !4, metadata !89, metadata !6}
!236 = metadata !{metadata !"kernel_arg_type", metadata !"struct ap_fixed<11, 5, 5, 3, 0> &", metadata !"struct ap_fixed<14, 4, 5, 3, 0> &"}
!237 = metadata !{null, metadata !1, metadata !2, metadata !238, metadata !4, metadata !38, metadata !6}
!238 = metadata !{metadata !"kernel_arg_type", metadata !"const ap_fixed_base<11, 5, true, (enum ap_q_mode)5, (enum ap_o_mode)3, 0> &", metadata !"int"}
!239 = metadata !{null, metadata !1, metadata !2, metadata !240, metadata !4, metadata !38, metadata !6}
!240 = metadata !{metadata !"kernel_arg_type", metadata !"const ap_fixed_base<43, 37, true, (enum ap_q_mode)5, (enum ap_o_mode)3, 0> &", metadata !"int"}
!241 = metadata !{null, metadata !1, metadata !2, metadata !242, metadata !4, metadata !100, metadata !6}
!242 = metadata !{metadata !"kernel_arg_type", metadata !"int", metadata !"const ap_fixed_base<44, 38, true, (enum ap_q_mode)5, (enum ap_o_mode)3, 0> &"}
!243 = metadata !{null, metadata !16, metadata !17, metadata !244, metadata !19, metadata !64, metadata !6}
!244 = metadata !{metadata !"kernel_arg_type", metadata !"const ap_fixed_base<44, 38, true, (enum ap_q_mode)5, (enum ap_o_mode)3, 0> &"}
!245 = metadata !{null, metadata !16, metadata !17, metadata !244, metadata !19, metadata !41, metadata !6}
!246 = metadata !{null, metadata !1, metadata !2, metadata !247, metadata !4, metadata !38, metadata !6}
!247 = metadata !{metadata !"kernel_arg_type", metadata !"const ap_fixed_base<45, 39, true, (enum ap_q_mode)5, (enum ap_o_mode)3, 0> &", metadata !"int"}
!248 = metadata !{null, metadata !16, metadata !17, metadata !249, metadata !19, metadata !67, metadata !6}
!249 = metadata !{metadata !"kernel_arg_type", metadata !"float"}
!250 = metadata !{null, metadata !16, metadata !17, metadata !251, metadata !19, metadata !41, metadata !6}
!251 = metadata !{metadata !"kernel_arg_type", metadata !"const ap_fixed_base<21, 5, true, (enum ap_q_mode)5, (enum ap_o_mode)3, 0> &"}
!252 = metadata !{null, metadata !1, metadata !2, metadata !253, metadata !4, metadata !50, metadata !6}
!253 = metadata !{metadata !"kernel_arg_type", metadata !"const ap_int_base<14, true> &", metadata !"int"}
!254 = metadata !{null, metadata !1, metadata !2, metadata !255, metadata !4, metadata !38, metadata !6}
!255 = metadata !{metadata !"kernel_arg_type", metadata !"ap_fixed_base<19, 3, true, (enum ap_q_mode)5, (enum ap_o_mode)3, 0> &", metadata !"int"}
!256 = metadata !{null, metadata !16, metadata !17, metadata !257, metadata !19, metadata !41, metadata !6}
!257 = metadata !{metadata !"kernel_arg_type", metadata !"const ap_fixed_base<51, 35, true, (enum ap_q_mode)5, (enum ap_o_mode)3, 0> &"}
!258 = metadata !{null, metadata !1, metadata !2, metadata !259, metadata !4, metadata !89, metadata !6}
!259 = metadata !{metadata !"kernel_arg_type", metadata !"struct ap_fixed<11, 5, 5, 3, 0> &", metadata !"struct ap_fixed<19, 3, 5, 3, 0> &"}
!260 = metadata !{null, metadata !16, metadata !17, metadata !261, metadata !19, metadata !41, metadata !6}
!261 = metadata !{metadata !"kernel_arg_type", metadata !"const ap_fixed<14, 4, (enum ap_q_mode)5, (enum ap_o_mode)3, 0> &"}
!262 = metadata !{null, metadata !16, metadata !17, metadata !263, metadata !19, metadata !41, metadata !6}
!263 = metadata !{metadata !"kernel_arg_type", metadata !"const ap_fixed_base<25, 3, true, (enum ap_q_mode)5, (enum ap_o_mode)3, 0> &"}
!264 = metadata !{null, metadata !16, metadata !17, metadata !204, metadata !19, metadata !41, metadata !6}
!265 = metadata !{null, metadata !1, metadata !2, metadata !266, metadata !4, metadata !50, metadata !6}
!266 = metadata !{metadata !"kernel_arg_type", metadata !"const ap_int_base<1, false> &", metadata !"int"}
!267 = metadata !{null, metadata !1, metadata !2, metadata !268, metadata !4, metadata !89, metadata !6}
!268 = metadata !{metadata !"kernel_arg_type", metadata !"struct ap_fixed<24, 2, 5, 3, 0> &", metadata !"struct ap_fixed<24, 2, 5, 3, 0> &"}
!269 = metadata !{null, metadata !108, metadata !17, metadata !270, metadata !19, metadata !110, metadata !6}
!270 = metadata !{metadata !"kernel_arg_type", metadata !"struct ap_fixed<24, 2, 5, 3, 0>*"}
!271 = metadata !{null, metadata !1, metadata !2, metadata !272, metadata !4, metadata !32, metadata !6}
!272 = metadata !{metadata !"kernel_arg_type", metadata !"std::ostream &", metadata !"const ap_fixed_base<24, 2, true, (enum ap_q_mode)5, (enum ap_o_mode)3, 0> &"}
!273 = metadata !{null, metadata !1, metadata !2, metadata !274, metadata !4, metadata !32, metadata !6}
!274 = metadata !{metadata !"kernel_arg_type", metadata !"std::ostream &", metadata !"const ap_int_base<15, true> &"}
!275 = metadata !{null, metadata !16, metadata !17, metadata !276, metadata !19, metadata !41, metadata !6}
!276 = metadata !{metadata !"kernel_arg_type", metadata !"const ap_fixed<24, 2, (enum ap_q_mode)5, (enum ap_o_mode)3, 0> &"}
!277 = metadata !{null, metadata !1, metadata !2, metadata !278, metadata !4, metadata !38, metadata !6}
!278 = metadata !{metadata !"kernel_arg_type", metadata !"const ap_int_base<15, true> &", metadata !"double"}
!279 = metadata !{null, metadata !1, metadata !2, metadata !280, metadata !4, metadata !38, metadata !6}
!280 = metadata !{metadata !"kernel_arg_type", metadata !"const ap_int_base<15, true> &", metadata !"int"}
!281 = metadata !{null, metadata !1, metadata !2, metadata !282, metadata !4, metadata !50, metadata !6}
!282 = metadata !{metadata !"kernel_arg_type", metadata !"const ap_int_base<15, true> &", metadata !"const ap_int_base<32, true> &"}
!283 = metadata !{null, metadata !16, metadata !17, metadata !284, metadata !19, metadata !41, metadata !6}
!284 = metadata !{metadata !"kernel_arg_type", metadata !"const ap_int_base<15, true> &"}
!285 = metadata !{null, metadata !1, metadata !2, metadata !280, metadata !4, metadata !50, metadata !6}
!286 = metadata !{null, metadata !1, metadata !2, metadata !287, metadata !4, metadata !32, metadata !6}
!287 = metadata !{metadata !"kernel_arg_type", metadata !"std::ostream &", metadata !"const ap_int_base<34, true> &"}
!288 = metadata !{null, metadata !1, metadata !2, metadata !289, metadata !4, metadata !100, metadata !6}
!289 = metadata !{metadata !"kernel_arg_type", metadata !"int", metadata !"const ap_int_base<33, true> &"}
!290 = metadata !{null, metadata !1, metadata !2, metadata !291, metadata !4, metadata !50, metadata !6}
!291 = metadata !{metadata !"kernel_arg_type", metadata !"const ap_int_base<32, true> &", metadata !"const ap_int_base<33, true> &"}
!292 = metadata !{null, metadata !1, metadata !2, metadata !293, metadata !4, metadata !100, metadata !6}
!293 = metadata !{metadata !"kernel_arg_type", metadata !"int", metadata !"const ap_int_base<1, false> &"}
!294 = metadata !{null, metadata !1, metadata !2, metadata !295, metadata !4, metadata !50, metadata !6}
!295 = metadata !{metadata !"kernel_arg_type", metadata !"const ap_int_base<32, true> &", metadata !"const ap_int_base<1, false> &"}
!296 = metadata !{null, metadata !1, metadata !2, metadata !297, metadata !4, metadata !32, metadata !6}
!297 = metadata !{metadata !"kernel_arg_type", metadata !"std::ostream &", metadata !"const ap_int_base<1, false> &"}
!298 = metadata !{null, metadata !1, metadata !2, metadata !299, metadata !4, metadata !38, metadata !6}
!299 = metadata !{metadata !"kernel_arg_type", metadata !"const ap_int_base<23, true> &", metadata !"double"}
!300 = metadata !{null, metadata !1, metadata !2, metadata !301, metadata !4, metadata !32, metadata !6}
!301 = metadata !{metadata !"kernel_arg_type", metadata !"std::ostream &", metadata !"const ap_int_base<23, true> &"}
!302 = metadata !{null, metadata !1, metadata !2, metadata !303, metadata !4, metadata !32, metadata !6}
!303 = metadata !{metadata !"kernel_arg_type", metadata !"std::ostream &", metadata !"const ap_fixed_base<52, 36, true, (enum ap_q_mode)5, (enum ap_o_mode)3, 0> &"}
!304 = metadata !{null, metadata !1, metadata !2, metadata !305, metadata !4, metadata !32, metadata !6}
!305 = metadata !{metadata !"kernel_arg_type", metadata !"std::ostream &", metadata !"const ap_fixed_base<20, 4, true, (enum ap_q_mode)5, (enum ap_o_mode)3, 0> &"}
!306 = metadata !{null, metadata !1, metadata !2, metadata !307, metadata !4, metadata !32, metadata !6}
!307 = metadata !{metadata !"kernel_arg_type", metadata !"std::ostream &", metadata !"const ap_int_base<5, false> &"}
!308 = metadata !{null, metadata !1, metadata !2, metadata !309, metadata !4, metadata !32, metadata !6}
!309 = metadata !{metadata !"kernel_arg_type", metadata !"std::ostream &", metadata !"const ap_fixed_base<19, 3, true, (enum ap_q_mode)5, (enum ap_o_mode)3, 0> &"}
!310 = metadata !{null, metadata !16, metadata !17, metadata !311, metadata !19, metadata !41, metadata !6}
!311 = metadata !{metadata !"kernel_arg_type", metadata !"const ap_fixed_base<52, 36, true, (enum ap_q_mode)5, (enum ap_o_mode)3, 0> &"}
!312 = metadata !{null, metadata !1, metadata !2, metadata !313, metadata !4, metadata !38, metadata !6}
!313 = metadata !{metadata !"kernel_arg_type", metadata !"const ap_fixed_base<20, 4, true, (enum ap_q_mode)5, (enum ap_o_mode)3, 0> &", metadata !"int"}
!314 = metadata !{null, metadata !1, metadata !2, metadata !315, metadata !4, metadata !38, metadata !6}
!315 = metadata !{metadata !"kernel_arg_type", metadata !"const ap_int_base<5, false> &", metadata !"int"}
!316 = metadata !{null, metadata !1, metadata !2, metadata !317, metadata !4, metadata !50, metadata !6}
!317 = metadata !{metadata !"kernel_arg_type", metadata !"const ap_int_base<5, false> &", metadata !"const ap_int_base<32, true> &"}
!318 = metadata !{null, metadata !16, metadata !17, metadata !319, metadata !19, metadata !41, metadata !6}
!319 = metadata !{metadata !"kernel_arg_type", metadata !"const ap_int_base<5, false> &"}
!320 = metadata !{null, metadata !1, metadata !2, metadata !321, metadata !4, metadata !38, metadata !6}
!321 = metadata !{metadata !"kernel_arg_type", metadata !"const ap_int_base<19, true> &", metadata !"double"}
!322 = metadata !{null, metadata !16, metadata !17, metadata !323, metadata !19, metadata !41, metadata !6}
!323 = metadata !{metadata !"kernel_arg_type", metadata !"const ap_fixed<19, 3, (enum ap_q_mode)5, (enum ap_o_mode)3, 0> &"}
!324 = metadata !{null, metadata !1, metadata !2, metadata !325, metadata !4, metadata !38, metadata !6}
!325 = metadata !{metadata !"kernel_arg_type", metadata !"const ap_int_base<19, true> &", metadata !"int"}
!326 = metadata !{null, metadata !1, metadata !2, metadata !327, metadata !4, metadata !50, metadata !6}
!327 = metadata !{metadata !"kernel_arg_type", metadata !"const ap_int_base<19, true> &", metadata !"const ap_int_base<32, true> &"}
!328 = metadata !{null, metadata !16, metadata !17, metadata !329, metadata !19, metadata !41, metadata !6}
!329 = metadata !{metadata !"kernel_arg_type", metadata !"const ap_int_base<19, true> &"}
!330 = metadata !{null, metadata !1, metadata !2, metadata !325, metadata !4, metadata !50, metadata !6}
!331 = metadata !{null, metadata !1, metadata !2, metadata !332, metadata !4, metadata !32, metadata !6}
!332 = metadata !{metadata !"kernel_arg_type", metadata !"std::ostream &", metadata !"const ap_fixed_base<11, 5, true, (enum ap_q_mode)5, (enum ap_o_mode)3, 0> &"}
!333 = metadata !{null, metadata !1, metadata !2, metadata !334, metadata !4, metadata !32, metadata !6}
!334 = metadata !{metadata !"kernel_arg_type", metadata !"std::ostream &", metadata !"const ap_int_base<11, true> &"}
!335 = metadata !{null, metadata !1, metadata !2, metadata !336, metadata !4, metadata !38, metadata !6}
!336 = metadata !{metadata !"kernel_arg_type", metadata !"const ap_int_base<11, true> &", metadata !"double"}
!337 = metadata !{null, metadata !16, metadata !17, metadata !338, metadata !19, metadata !41, metadata !6}
!338 = metadata !{metadata !"kernel_arg_type", metadata !"const ap_fixed<11, 5, (enum ap_q_mode)5, (enum ap_o_mode)3, 0> &"}
!339 = metadata !{null, metadata !1, metadata !2, metadata !340, metadata !4, metadata !38, metadata !6}
!340 = metadata !{metadata !"kernel_arg_type", metadata !"const ap_int_base<65, true> &", metadata !"double"}
!341 = metadata !{null, metadata !1, metadata !2, metadata !342, metadata !4, metadata !38, metadata !6}
!342 = metadata !{metadata !"kernel_arg_type", metadata !"const ap_int_base<11, true> &", metadata !"int"}
!343 = metadata !{null, metadata !1, metadata !2, metadata !344, metadata !4, metadata !50, metadata !6}
!344 = metadata !{metadata !"kernel_arg_type", metadata !"const ap_int_base<11, true> &", metadata !"const ap_int_base<32, true> &"}
!345 = metadata !{null, metadata !16, metadata !17, metadata !346, metadata !19, metadata !41, metadata !6}
!346 = metadata !{metadata !"kernel_arg_type", metadata !"const ap_int_base<11, true> &"}
!347 = metadata !{null, metadata !1, metadata !2, metadata !342, metadata !4, metadata !50, metadata !6}
!348 = metadata !{null, metadata !1, metadata !2, metadata !349, metadata !4, metadata !32, metadata !6}
!349 = metadata !{metadata !"kernel_arg_type", metadata !"std::ostream &", metadata !"const ap_fixed_base<14, 4, true, (enum ap_q_mode)5, (enum ap_o_mode)3, 0> &"}
!350 = metadata !{null, metadata !1, metadata !2, metadata !351, metadata !4, metadata !32, metadata !6}
!351 = metadata !{metadata !"kernel_arg_type", metadata !"std::ostream &", metadata !"const ap_int_base<14, true> &"}
!352 = metadata !{null, metadata !16, metadata !17, metadata !353, metadata !19, metadata !41, metadata !6}
!353 = metadata !{metadata !"kernel_arg_type", metadata !"const ap_fixed_base<46, 36, true, (enum ap_q_mode)5, (enum ap_o_mode)3, 0> &"}
!354 = metadata !{null, metadata !1, metadata !2, metadata !355, metadata !4, metadata !38, metadata !6}
!355 = metadata !{metadata !"kernel_arg_type", metadata !"const ap_fixed_base<14, 4, true, (enum ap_q_mode)5, (enum ap_o_mode)3, 0> &", metadata !"int"}
!356 = metadata !{null, metadata !1, metadata !2, metadata !357, metadata !4, metadata !38, metadata !6}
!357 = metadata !{metadata !"kernel_arg_type", metadata !"ap_fixed_base<14, 4, true, (enum ap_q_mode)5, (enum ap_o_mode)3, 0> &", metadata !"int"}
!358 = metadata !{null, metadata !1, metadata !2, metadata !359, metadata !4, metadata !38, metadata !6}
!359 = metadata !{metadata !"kernel_arg_type", metadata !"const ap_int_base<14, true> &", metadata !"double"}
!360 = metadata !{null, metadata !1, metadata !2, metadata !361, metadata !4, metadata !38, metadata !6}
!361 = metadata !{metadata !"kernel_arg_type", metadata !"const ap_int_base<33, true> &", metadata !"double"}
!362 = metadata !{null, metadata !1, metadata !2, metadata !253, metadata !4, metadata !38, metadata !6}
!363 = metadata !{null, metadata !1, metadata !2, metadata !364, metadata !4, metadata !50, metadata !6}
!364 = metadata !{metadata !"kernel_arg_type", metadata !"const ap_int_base<14, true> &", metadata !"const ap_int_base<32, true> &"}
!365 = metadata !{null, metadata !16, metadata !17, metadata !40, metadata !19, metadata !366, metadata !6}
!366 = metadata !{metadata !"kernel_arg_name", metadata !"val"}
!367 = metadata !{null, metadata !16, metadata !17, metadata !368, metadata !19, metadata !64, metadata !6}
!368 = metadata !{metadata !"kernel_arg_type", metadata !"const ap_int<3> &"}
!369 = metadata !{null, metadata !16, metadata !17, metadata !370, metadata !19, metadata !64, metadata !6}
!370 = metadata !{metadata !"kernel_arg_type", metadata !"const ap_uint<1> &"}
!371 = metadata !{null, metadata !16, metadata !17, metadata !372, metadata !19, metadata !64, metadata !6}
!372 = metadata !{metadata !"kernel_arg_type", metadata !"const ap_int<23> &"}
!373 = metadata !{null, metadata !16, metadata !17, metadata !374, metadata !19, metadata !64, metadata !6}
!374 = metadata !{metadata !"kernel_arg_type", metadata !"const ap_int<14> &"}
!375 = metadata !{null, metadata !16, metadata !17, metadata !376, metadata !19, metadata !64, metadata !6}
!376 = metadata !{metadata !"kernel_arg_type", metadata !"const ap_uint<14> &"}
!377 = metadata !{null, metadata !16, metadata !17, metadata !378, metadata !19, metadata !64, metadata !6}
!378 = metadata !{metadata !"kernel_arg_type", metadata !"const ap_int<15> &"}
!379 = metadata !{null, metadata !16, metadata !17, metadata !380, metadata !19, metadata !181, metadata !6}
!380 = metadata !{metadata !"kernel_arg_type", metadata !"const struct std::pair<struct ap_int<14>, struct ap_int<23> > &"}
!381 = metadata !{metadata !382, [1 x i32]* @llvm_global_ctors_0}
!382 = metadata !{metadata !383}
!383 = metadata !{i32 0, i32 31, metadata !384}
!384 = metadata !{metadata !385}
!385 = metadata !{metadata !"llvm.global_ctors.0", metadata !386, metadata !"", i32 0, i32 31}
!386 = metadata !{metadata !387}
!387 = metadata !{i32 0, i32 0, i32 1}
!388 = metadata !{metadata !389}
!389 = metadata !{i32 0, i32 10, metadata !390}
!390 = metadata !{metadata !391}
!391 = metadata !{metadata !"data.V", metadata !386, metadata !"int11", i32 0, i32 10}
!392 = metadata !{metadata !393}
!393 = metadata !{i32 0, i32 13, metadata !394}
!394 = metadata !{metadata !395}
!395 = metadata !{metadata !"res.V", metadata !386, metadata !"int14", i32 0, i32 13}
!396 = metadata !{i32 790531, metadata !397, metadata !"data.V", null, i32 126, metadata !9873, i32 0, i32 0} ; [ DW_TAG_arg_variable_field ]
!397 = metadata !{i32 786689, metadata !398, metadata !"data", metadata !399, i32 16777342, metadata !402, i32 0, i32 0} ; [ DW_TAG_arg_variable ]
!398 = metadata !{i32 786478, i32 0, metadata !399, metadata !"delta_minus_LUT<ap_fixed<11, 5, 5, 3, 0>, ap_fixed<14, 4, 5, 3, 0>, 1024>", metadata !"delta_minus_LUT<ap_fixed<11, 5, 5, 3, 0>, ap_fixed<14, 4, 5, 3, 0>, 1024>", metadata !"_Z15delta_minus_LUTI8ap_fixedILi11ELi5EL9ap_q_mode5EL9ap_o_mode3ELi0EES0_ILi14ELi4ELS1_5ELS2_3ELi0EELi1024EEvRT_RT0_", metadata !399, i32 126, metadata !400, i1 false, i1 true, i32 0, i32 0, null, i32 256, i1 false, null, metadata !9869, null, metadata !420, i32 126} ; [ DW_TAG_subprogram ]
!399 = metadata !{i32 786473, metadata !"src/tk-mu_simple.h", metadata !"/data/dildick/GlobalCorrelator/pulsar_devkit/simple_examples/HLSIPs", null} ; [ DW_TAG_file_type ]
!400 = metadata !{i32 786453, i32 0, metadata !"", i32 0, i32 0, i64 0, i64 0, i64 0, i32 0, null, metadata !401, i32 0, i32 0} ; [ DW_TAG_subroutine_type ]
!401 = metadata !{null, metadata !402, metadata !798}
!402 = metadata !{i32 786448, null, null, null, i32 0, i64 0, i64 0, i64 0, i32 0, metadata !403} ; [ DW_TAG_reference_type ]
!403 = metadata !{i32 786434, null, metadata !"ap_fixed<11, 5, 5, 3, 0>", metadata !404, i32 287, i64 16, i64 16, i32 0, i32 0, null, metadata !405, i32 0, null, metadata !797} ; [ DW_TAG_class_type ]
!404 = metadata !{i32 786473, metadata !"/opt/Xilinx/Vivado_HLS/2016.4/common/technology/autopilot/ap_int.h", metadata !"/data/dildick/GlobalCorrelator/pulsar_devkit/simple_examples/HLSIPs", null} ; [ DW_TAG_file_type ]
!405 = metadata !{metadata !406, metadata !729, metadata !733, metadata !736, metadata !739, metadata !742, metadata !745, metadata !748, metadata !751, metadata !754, metadata !757, metadata !760, metadata !763, metadata !766, metadata !769, metadata !772, metadata !775, metadata !778, metadata !783, metadata !789, metadata !793, metadata !796}
!406 = metadata !{i32 786460, metadata !403, null, metadata !404, i32 0, i64 0, i64 0, i64 0, i32 0, metadata !407} ; [ DW_TAG_inheritance ]
!407 = metadata !{i32 786434, null, metadata !"ap_fixed_base<11, 5, true, 5, 3, 0>", metadata !408, i32 510, i64 16, i64 16, i32 0, i32 0, null, metadata !409, i32 0, null, metadata !723} ; [ DW_TAG_class_type ]
!408 = metadata !{i32 786473, metadata !"/opt/Xilinx/Vivado_HLS/2016.4/common/technology/autopilot/ap_fixed_syn.h", metadata !"/data/dildick/GlobalCorrelator/pulsar_devkit/simple_examples/HLSIPs", null} ; [ DW_TAG_file_type ]
!409 = metadata !{metadata !410, metadata !427, metadata !431, metadata !434, metadata !437, metadata !466, metadata !472, metadata !475, metadata !479, metadata !483, metadata !487, metadata !491, metadata !495, metadata !498, metadata !502, metadata !506, metadata !510, metadata !515, metadata !520, metadata !525, metadata !528, metadata !533, metadata !537, metadata !540, metadata !543, metadata !546, metadata !550, metadata !553, metadata !557, metadata !560, metadata !563, metadata !566, metadata !570, metadata !573, metadata !576, metadata !579, metadata !582, metadata !585, metadata !588, metadata !589, metadata !590, metadata !593, metadata !596, metadata !599, metadata !602, metadata !605, metadata !606, metadata !607, metadata !610, metadata !613, metadata !616, metadata !619, metadata !620, metadata !623, metadata !626, metadata !627, metadata !630, metadata !631, metadata !634, metadata !638, metadata !639, metadata !642, metadata !645, metadata !648, metadata !651, metadata !652, metadata !653, metadata !656, metadata !659, metadata !660, metadata !661, metadata !664, metadata !665, metadata !666, metadata !667, metadata !668, metadata !669, metadata !673, metadata !676, metadata !677, metadata !678, metadata !681, metadata !684, metadata !688, metadata !689, metadata !692, metadata !693, metadata !696, metadata !699, metadata !700, metadata !701, metadata !702, metadata !703, metadata !706, metadata !709, metadata !710, metadata !720}
!410 = metadata !{i32 786460, metadata !407, null, metadata !408, i32 0, i64 0, i64 0, i64 0, i32 0, metadata !411} ; [ DW_TAG_inheritance ]
!411 = metadata !{i32 786434, null, metadata !"ssdm_int<11 + 1024 * 0, true>", metadata !412, i32 13, i64 16, i64 16, i32 0, i32 0, null, metadata !413, i32 0, null, metadata !422} ; [ DW_TAG_class_type ]
!412 = metadata !{i32 786473, metadata !"/opt/Xilinx/Vivado_HLS/2016.4/common/technology/autopilot/etc/autopilot_dt.def", metadata !"/data/dildick/GlobalCorrelator/pulsar_devkit/simple_examples/HLSIPs", null} ; [ DW_TAG_file_type ]
!413 = metadata !{metadata !414, metadata !416}
!414 = metadata !{i32 786445, metadata !411, metadata !"V", metadata !412, i32 13, i64 11, i64 16, i64 0, i32 0, metadata !415} ; [ DW_TAG_member ]
!415 = metadata !{i32 786468, null, metadata !"int11", null, i32 0, i64 11, i64 16, i64 0, i32 0, i32 5} ; [ DW_TAG_base_type ]
!416 = metadata !{i32 786478, i32 0, metadata !411, metadata !"ssdm_int", metadata !"ssdm_int", metadata !"", metadata !412, i32 13, metadata !417, i1 false, i1 false, i32 0, i32 0, null, i32 256, i1 false, null, null, i32 0, metadata !420, i32 13} ; [ DW_TAG_subprogram ]
!417 = metadata !{i32 786453, i32 0, metadata !"", i32 0, i32 0, i64 0, i64 0, i64 0, i32 0, null, metadata !418, i32 0, i32 0} ; [ DW_TAG_subroutine_type ]
!418 = metadata !{null, metadata !419}
!419 = metadata !{i32 786447, i32 0, metadata !"", i32 0, i32 0, i64 64, i64 64, i64 0, i32 64, metadata !411} ; [ DW_TAG_pointer_type ]
!420 = metadata !{metadata !421}
!421 = metadata !{i32 786468}                     ; [ DW_TAG_base_type ]
!422 = metadata !{metadata !423, metadata !425}
!423 = metadata !{i32 786480, null, metadata !"_AP_N", metadata !424, i64 11, null, i32 0, i32 0} ; [ DW_TAG_template_value_parameter ]
!424 = metadata !{i32 786468, null, metadata !"int", null, i32 0, i64 32, i64 32, i64 0, i32 0, i32 5} ; [ DW_TAG_base_type ]
!425 = metadata !{i32 786480, null, metadata !"_AP_S", metadata !426, i64 1, null, i32 0, i32 0} ; [ DW_TAG_template_value_parameter ]
!426 = metadata !{i32 786468, null, metadata !"bool", null, i32 0, i64 8, i64 8, i64 0, i32 0, i32 2} ; [ DW_TAG_base_type ]
!427 = metadata !{i32 786478, i32 0, metadata !407, metadata !"overflow_adjust", metadata !"overflow_adjust", metadata !"_ZN13ap_fixed_baseILi11ELi5ELb1EL9ap_q_mode5EL9ap_o_mode3ELi0EE15overflow_adjustEbbbb", metadata !408, i32 520, metadata !428, i1 false, i1 false, i32 0, i32 0, null, i32 256, i1 false, null, null, i32 0, metadata !420, i32 520} ; [ DW_TAG_subprogram ]
!428 = metadata !{i32 786453, i32 0, metadata !"", i32 0, i32 0, i64 0, i64 0, i64 0, i32 0, null, metadata !429, i32 0, i32 0} ; [ DW_TAG_subroutine_type ]
!429 = metadata !{null, metadata !430, metadata !426, metadata !426, metadata !426, metadata !426}
!430 = metadata !{i32 786447, i32 0, metadata !"", i32 0, i32 0, i64 64, i64 64, i64 0, i32 64, metadata !407} ; [ DW_TAG_pointer_type ]
!431 = metadata !{i32 786478, i32 0, metadata !407, metadata !"quantization_adjust", metadata !"quantization_adjust", metadata !"_ZN13ap_fixed_baseILi11ELi5ELb1EL9ap_q_mode5EL9ap_o_mode3ELi0EE19quantization_adjustEbbb", metadata !408, i32 593, metadata !432, i1 false, i1 false, i32 0, i32 0, null, i32 256, i1 false, null, null, i32 0, metadata !420, i32 593} ; [ DW_TAG_subprogram ]
!432 = metadata !{i32 786453, i32 0, metadata !"", i32 0, i32 0, i64 0, i64 0, i64 0, i32 0, null, metadata !433, i32 0, i32 0} ; [ DW_TAG_subroutine_type ]
!433 = metadata !{metadata !426, metadata !430, metadata !426, metadata !426, metadata !426}
!434 = metadata !{i32 786478, i32 0, metadata !407, metadata !"ap_fixed_base", metadata !"ap_fixed_base", metadata !"", metadata !408, i32 651, metadata !435, i1 false, i1 false, i32 0, i32 0, null, i32 256, i1 false, null, null, i32 0, metadata !420, i32 651} ; [ DW_TAG_subprogram ]
!435 = metadata !{i32 786453, i32 0, metadata !"", i32 0, i32 0, i64 0, i64 0, i64 0, i32 0, null, metadata !436, i32 0, i32 0} ; [ DW_TAG_subroutine_type ]
!436 = metadata !{null, metadata !430}
!437 = metadata !{i32 786478, i32 0, metadata !407, metadata !"ap_fixed_base<11, 5, true, 5, 3, 0>", metadata !"ap_fixed_base<11, 5, true, 5, 3, 0>", metadata !"", metadata !408, i32 661, metadata !438, i1 false, i1 false, i32 0, i32 0, null, i32 256, i1 false, null, metadata !442, i32 0, metadata !420, i32 661} ; [ DW_TAG_subprogram ]
!438 = metadata !{i32 786453, i32 0, metadata !"", i32 0, i32 0, i64 0, i64 0, i64 0, i32 0, null, metadata !439, i32 0, i32 0} ; [ DW_TAG_subroutine_type ]
!439 = metadata !{null, metadata !430, metadata !440}
!440 = metadata !{i32 786448, null, null, null, i32 0, i64 0, i64 0, i64 0, i32 0, metadata !441} ; [ DW_TAG_reference_type ]
!441 = metadata !{i32 786470, null, metadata !"", null, i32 0, i64 0, i64 0, i64 0, i32 0, metadata !407} ; [ DW_TAG_const_type ]
!442 = metadata !{metadata !443, metadata !444, metadata !445, metadata !446, metadata !457, metadata !465}
!443 = metadata !{i32 786480, null, metadata !"_AP_W2", metadata !424, i64 11, null, i32 0, i32 0} ; [ DW_TAG_template_value_parameter ]
!444 = metadata !{i32 786480, null, metadata !"_AP_I2", metadata !424, i64 5, null, i32 0, i32 0} ; [ DW_TAG_template_value_parameter ]
!445 = metadata !{i32 786480, null, metadata !"_AP_S2", metadata !426, i64 1, null, i32 0, i32 0} ; [ DW_TAG_template_value_parameter ]
!446 = metadata !{i32 786480, null, metadata !"_AP_Q2", metadata !447, i64 5, null, i32 0, i32 0} ; [ DW_TAG_template_value_parameter ]
!447 = metadata !{i32 786436, null, metadata !"ap_q_mode", metadata !448, i32 656, i64 3, i64 4, i32 0, i32 0, null, metadata !449, i32 0, i32 0} ; [ DW_TAG_enumeration_type ]
!448 = metadata !{i32 786473, metadata !"/opt/Xilinx/Vivado_HLS/2016.4/common/technology/autopilot/ap_int_syn.h", metadata !"/data/dildick/GlobalCorrelator/pulsar_devkit/simple_examples/HLSIPs", null} ; [ DW_TAG_file_type ]
!449 = metadata !{metadata !450, metadata !451, metadata !452, metadata !453, metadata !454, metadata !455, metadata !456}
!450 = metadata !{i32 786472, metadata !"SC_RND", i64 0} ; [ DW_TAG_enumerator ]
!451 = metadata !{i32 786472, metadata !"SC_RND_ZERO", i64 1} ; [ DW_TAG_enumerator ]
!452 = metadata !{i32 786472, metadata !"SC_RND_MIN_INF", i64 2} ; [ DW_TAG_enumerator ]
!453 = metadata !{i32 786472, metadata !"SC_RND_INF", i64 3} ; [ DW_TAG_enumerator ]
!454 = metadata !{i32 786472, metadata !"SC_RND_CONV", i64 4} ; [ DW_TAG_enumerator ]
!455 = metadata !{i32 786472, metadata !"SC_TRN", i64 5} ; [ DW_TAG_enumerator ]
!456 = metadata !{i32 786472, metadata !"SC_TRN_ZERO", i64 6} ; [ DW_TAG_enumerator ]
!457 = metadata !{i32 786480, null, metadata !"_AP_O2", metadata !458, i64 3, null, i32 0, i32 0} ; [ DW_TAG_template_value_parameter ]
!458 = metadata !{i32 786436, null, metadata !"ap_o_mode", metadata !448, i32 666, i64 3, i64 4, i32 0, i32 0, null, metadata !459, i32 0, i32 0} ; [ DW_TAG_enumeration_type ]
!459 = metadata !{metadata !460, metadata !461, metadata !462, metadata !463, metadata !464}
!460 = metadata !{i32 786472, metadata !"SC_SAT", i64 0} ; [ DW_TAG_enumerator ]
!461 = metadata !{i32 786472, metadata !"SC_SAT_ZERO", i64 1} ; [ DW_TAG_enumerator ]
!462 = metadata !{i32 786472, metadata !"SC_SAT_SYM", i64 2} ; [ DW_TAG_enumerator ]
!463 = metadata !{i32 786472, metadata !"SC_WRAP", i64 3} ; [ DW_TAG_enumerator ]
!464 = metadata !{i32 786472, metadata !"SC_WRAP_SM", i64 4} ; [ DW_TAG_enumerator ]
!465 = metadata !{i32 786480, null, metadata !"_AP_N2", metadata !424, i64 0, null, i32 0, i32 0} ; [ DW_TAG_template_value_parameter ]
!466 = metadata !{i32 786478, i32 0, metadata !407, metadata !"ap_fixed_base<11, 5, true, 5, 3, 0>", metadata !"ap_fixed_base<11, 5, true, 5, 3, 0>", metadata !"", metadata !408, i32 775, metadata !467, i1 false, i1 false, i32 0, i32 0, null, i32 256, i1 false, null, metadata !442, i32 0, metadata !420, i32 775} ; [ DW_TAG_subprogram ]
!467 = metadata !{i32 786453, i32 0, metadata !"", i32 0, i32 0, i64 0, i64 0, i64 0, i32 0, null, metadata !468, i32 0, i32 0} ; [ DW_TAG_subroutine_type ]
!468 = metadata !{null, metadata !430, metadata !469}
!469 = metadata !{i32 786448, null, null, null, i32 0, i64 0, i64 0, i64 0, i32 0, metadata !470} ; [ DW_TAG_reference_type ]
!470 = metadata !{i32 786470, null, metadata !"", null, i32 0, i64 0, i64 0, i64 0, i32 0, metadata !471} ; [ DW_TAG_const_type ]
!471 = metadata !{i32 786485, null, metadata !"", null, i32 0, i64 0, i64 0, i64 0, i32 0, metadata !407} ; [ DW_TAG_volatile_type ]
!472 = metadata !{i32 786478, i32 0, metadata !407, metadata !"ap_fixed_base", metadata !"ap_fixed_base", metadata !"", metadata !408, i32 787, metadata !473, i1 false, i1 false, i32 0, i32 0, null, i32 256, i1 false, null, null, i32 0, metadata !420, i32 787} ; [ DW_TAG_subprogram ]
!473 = metadata !{i32 786453, i32 0, metadata !"", i32 0, i32 0, i64 0, i64 0, i64 0, i32 0, null, metadata !474, i32 0, i32 0} ; [ DW_TAG_subroutine_type ]
!474 = metadata !{null, metadata !430, metadata !426}
!475 = metadata !{i32 786478, i32 0, metadata !407, metadata !"ap_fixed_base", metadata !"ap_fixed_base", metadata !"", metadata !408, i32 788, metadata !476, i1 false, i1 false, i32 0, i32 0, null, i32 256, i1 false, null, null, i32 0, metadata !420, i32 788} ; [ DW_TAG_subprogram ]
!476 = metadata !{i32 786453, i32 0, metadata !"", i32 0, i32 0, i64 0, i64 0, i64 0, i32 0, null, metadata !477, i32 0, i32 0} ; [ DW_TAG_subroutine_type ]
!477 = metadata !{null, metadata !430, metadata !478}
!478 = metadata !{i32 786468, null, metadata !"char", null, i32 0, i64 8, i64 8, i64 0, i32 0, i32 6} ; [ DW_TAG_base_type ]
!479 = metadata !{i32 786478, i32 0, metadata !407, metadata !"ap_fixed_base", metadata !"ap_fixed_base", metadata !"", metadata !408, i32 789, metadata !480, i1 false, i1 false, i32 0, i32 0, null, i32 256, i1 false, null, null, i32 0, metadata !420, i32 789} ; [ DW_TAG_subprogram ]
!480 = metadata !{i32 786453, i32 0, metadata !"", i32 0, i32 0, i64 0, i64 0, i64 0, i32 0, null, metadata !481, i32 0, i32 0} ; [ DW_TAG_subroutine_type ]
!481 = metadata !{null, metadata !430, metadata !482}
!482 = metadata !{i32 786468, null, metadata !"signed char", null, i32 0, i64 8, i64 8, i64 0, i32 0, i32 6} ; [ DW_TAG_base_type ]
!483 = metadata !{i32 786478, i32 0, metadata !407, metadata !"ap_fixed_base", metadata !"ap_fixed_base", metadata !"", metadata !408, i32 790, metadata !484, i1 false, i1 false, i32 0, i32 0, null, i32 256, i1 false, null, null, i32 0, metadata !420, i32 790} ; [ DW_TAG_subprogram ]
!484 = metadata !{i32 786453, i32 0, metadata !"", i32 0, i32 0, i64 0, i64 0, i64 0, i32 0, null, metadata !485, i32 0, i32 0} ; [ DW_TAG_subroutine_type ]
!485 = metadata !{null, metadata !430, metadata !486}
!486 = metadata !{i32 786468, null, metadata !"unsigned char", null, i32 0, i64 8, i64 8, i64 0, i32 0, i32 8} ; [ DW_TAG_base_type ]
!487 = metadata !{i32 786478, i32 0, metadata !407, metadata !"ap_fixed_base", metadata !"ap_fixed_base", metadata !"", metadata !408, i32 791, metadata !488, i1 false, i1 false, i32 0, i32 0, null, i32 256, i1 false, null, null, i32 0, metadata !420, i32 791} ; [ DW_TAG_subprogram ]
!488 = metadata !{i32 786453, i32 0, metadata !"", i32 0, i32 0, i64 0, i64 0, i64 0, i32 0, null, metadata !489, i32 0, i32 0} ; [ DW_TAG_subroutine_type ]
!489 = metadata !{null, metadata !430, metadata !490}
!490 = metadata !{i32 786468, null, metadata !"short", null, i32 0, i64 16, i64 16, i64 0, i32 0, i32 5} ; [ DW_TAG_base_type ]
!491 = metadata !{i32 786478, i32 0, metadata !407, metadata !"ap_fixed_base", metadata !"ap_fixed_base", metadata !"", metadata !408, i32 792, metadata !492, i1 false, i1 false, i32 0, i32 0, null, i32 256, i1 false, null, null, i32 0, metadata !420, i32 792} ; [ DW_TAG_subprogram ]
!492 = metadata !{i32 786453, i32 0, metadata !"", i32 0, i32 0, i64 0, i64 0, i64 0, i32 0, null, metadata !493, i32 0, i32 0} ; [ DW_TAG_subroutine_type ]
!493 = metadata !{null, metadata !430, metadata !494}
!494 = metadata !{i32 786468, null, metadata !"unsigned short", null, i32 0, i64 16, i64 16, i64 0, i32 0, i32 7} ; [ DW_TAG_base_type ]
!495 = metadata !{i32 786478, i32 0, metadata !407, metadata !"ap_fixed_base", metadata !"ap_fixed_base", metadata !"", metadata !408, i32 793, metadata !496, i1 false, i1 false, i32 0, i32 0, null, i32 256, i1 false, null, null, i32 0, metadata !420, i32 793} ; [ DW_TAG_subprogram ]
!496 = metadata !{i32 786453, i32 0, metadata !"", i32 0, i32 0, i64 0, i64 0, i64 0, i32 0, null, metadata !497, i32 0, i32 0} ; [ DW_TAG_subroutine_type ]
!497 = metadata !{null, metadata !430, metadata !424}
!498 = metadata !{i32 786478, i32 0, metadata !407, metadata !"ap_fixed_base", metadata !"ap_fixed_base", metadata !"", metadata !408, i32 794, metadata !499, i1 false, i1 false, i32 0, i32 0, null, i32 256, i1 false, null, null, i32 0, metadata !420, i32 794} ; [ DW_TAG_subprogram ]
!499 = metadata !{i32 786453, i32 0, metadata !"", i32 0, i32 0, i64 0, i64 0, i64 0, i32 0, null, metadata !500, i32 0, i32 0} ; [ DW_TAG_subroutine_type ]
!500 = metadata !{null, metadata !430, metadata !501}
!501 = metadata !{i32 786468, null, metadata !"unsigned int", null, i32 0, i64 32, i64 32, i64 0, i32 0, i32 7} ; [ DW_TAG_base_type ]
!502 = metadata !{i32 786478, i32 0, metadata !407, metadata !"ap_fixed_base", metadata !"ap_fixed_base", metadata !"", metadata !408, i32 796, metadata !503, i1 false, i1 false, i32 0, i32 0, null, i32 256, i1 false, null, null, i32 0, metadata !420, i32 796} ; [ DW_TAG_subprogram ]
!503 = metadata !{i32 786453, i32 0, metadata !"", i32 0, i32 0, i64 0, i64 0, i64 0, i32 0, null, metadata !504, i32 0, i32 0} ; [ DW_TAG_subroutine_type ]
!504 = metadata !{null, metadata !430, metadata !505}
!505 = metadata !{i32 786468, null, metadata !"long int", null, i32 0, i64 64, i64 64, i64 0, i32 0, i32 5} ; [ DW_TAG_base_type ]
!506 = metadata !{i32 786478, i32 0, metadata !407, metadata !"ap_fixed_base", metadata !"ap_fixed_base", metadata !"", metadata !408, i32 797, metadata !507, i1 false, i1 false, i32 0, i32 0, null, i32 256, i1 false, null, null, i32 0, metadata !420, i32 797} ; [ DW_TAG_subprogram ]
!507 = metadata !{i32 786453, i32 0, metadata !"", i32 0, i32 0, i64 0, i64 0, i64 0, i32 0, null, metadata !508, i32 0, i32 0} ; [ DW_TAG_subroutine_type ]
!508 = metadata !{null, metadata !430, metadata !509}
!509 = metadata !{i32 786468, null, metadata !"long unsigned int", null, i32 0, i64 64, i64 64, i64 0, i32 0, i32 7} ; [ DW_TAG_base_type ]
!510 = metadata !{i32 786478, i32 0, metadata !407, metadata !"ap_fixed_base", metadata !"ap_fixed_base", metadata !"", metadata !408, i32 802, metadata !511, i1 false, i1 false, i32 0, i32 0, null, i32 256, i1 false, null, null, i32 0, metadata !420, i32 802} ; [ DW_TAG_subprogram ]
!511 = metadata !{i32 786453, i32 0, metadata !"", i32 0, i32 0, i64 0, i64 0, i64 0, i32 0, null, metadata !512, i32 0, i32 0} ; [ DW_TAG_subroutine_type ]
!512 = metadata !{null, metadata !430, metadata !513}
!513 = metadata !{i32 786454, null, metadata !"ap_slong", metadata !408, i32 111, i64 0, i64 0, i64 0, i32 0, metadata !514} ; [ DW_TAG_typedef ]
!514 = metadata !{i32 786468, null, metadata !"long long int", null, i32 0, i64 64, i64 64, i64 0, i32 0, i32 5} ; [ DW_TAG_base_type ]
!515 = metadata !{i32 786478, i32 0, metadata !407, metadata !"ap_fixed_base", metadata !"ap_fixed_base", metadata !"", metadata !408, i32 803, metadata !516, i1 false, i1 false, i32 0, i32 0, null, i32 256, i1 false, null, null, i32 0, metadata !420, i32 803} ; [ DW_TAG_subprogram ]
!516 = metadata !{i32 786453, i32 0, metadata !"", i32 0, i32 0, i64 0, i64 0, i64 0, i32 0, null, metadata !517, i32 0, i32 0} ; [ DW_TAG_subroutine_type ]
!517 = metadata !{null, metadata !430, metadata !518}
!518 = metadata !{i32 786454, null, metadata !"ap_ulong", metadata !408, i32 110, i64 0, i64 0, i64 0, i32 0, metadata !519} ; [ DW_TAG_typedef ]
!519 = metadata !{i32 786468, null, metadata !"long long unsigned int", null, i32 0, i64 64, i64 64, i64 0, i32 0, i32 7} ; [ DW_TAG_base_type ]
!520 = metadata !{i32 786478, i32 0, metadata !407, metadata !"ap_fixed_base", metadata !"ap_fixed_base", metadata !"", metadata !408, i32 804, metadata !521, i1 false, i1 false, i32 0, i32 0, null, i32 256, i1 false, null, null, i32 0, metadata !420, i32 804} ; [ DW_TAG_subprogram ]
!521 = metadata !{i32 786453, i32 0, metadata !"", i32 0, i32 0, i64 0, i64 0, i64 0, i32 0, null, metadata !522, i32 0, i32 0} ; [ DW_TAG_subroutine_type ]
!522 = metadata !{null, metadata !430, metadata !523}
!523 = metadata !{i32 786447, null, metadata !"", null, i32 0, i64 64, i64 64, i64 0, i32 0, metadata !524} ; [ DW_TAG_pointer_type ]
!524 = metadata !{i32 786470, null, metadata !"", null, i32 0, i64 0, i64 0, i64 0, i32 0, metadata !478} ; [ DW_TAG_const_type ]
!525 = metadata !{i32 786478, i32 0, metadata !407, metadata !"ap_fixed_base", metadata !"ap_fixed_base", metadata !"", metadata !408, i32 811, metadata !526, i1 false, i1 false, i32 0, i32 0, null, i32 256, i1 false, null, null, i32 0, metadata !420, i32 811} ; [ DW_TAG_subprogram ]
!526 = metadata !{i32 786453, i32 0, metadata !"", i32 0, i32 0, i64 0, i64 0, i64 0, i32 0, null, metadata !527, i32 0, i32 0} ; [ DW_TAG_subroutine_type ]
!527 = metadata !{null, metadata !430, metadata !523, metadata !482}
!528 = metadata !{i32 786478, i32 0, metadata !407, metadata !"doubleToRawBits", metadata !"doubleToRawBits", metadata !"_ZNK13ap_fixed_baseILi11ELi5ELb1EL9ap_q_mode5EL9ap_o_mode3ELi0EE15doubleToRawBitsEd", metadata !408, i32 847, metadata !529, i1 false, i1 false, i32 0, i32 0, null, i32 256, i1 false, null, null, i32 0, metadata !420, i32 847} ; [ DW_TAG_subprogram ]
!529 = metadata !{i32 786453, i32 0, metadata !"", i32 0, i32 0, i64 0, i64 0, i64 0, i32 0, null, metadata !530, i32 0, i32 0} ; [ DW_TAG_subroutine_type ]
!530 = metadata !{metadata !519, metadata !531, metadata !532}
!531 = metadata !{i32 786447, i32 0, metadata !"", i32 0, i32 0, i64 64, i64 64, i64 0, i32 64, metadata !441} ; [ DW_TAG_pointer_type ]
!532 = metadata !{i32 786468, null, metadata !"double", null, i32 0, i64 64, i64 64, i64 0, i32 0, i32 4} ; [ DW_TAG_base_type ]
!533 = metadata !{i32 786478, i32 0, metadata !407, metadata !"floatToRawBits", metadata !"floatToRawBits", metadata !"_ZNK13ap_fixed_baseILi11ELi5ELb1EL9ap_q_mode5EL9ap_o_mode3ELi0EE14floatToRawBitsEf", metadata !408, i32 855, metadata !534, i1 false, i1 false, i32 0, i32 0, null, i32 256, i1 false, null, null, i32 0, metadata !420, i32 855} ; [ DW_TAG_subprogram ]
!534 = metadata !{i32 786453, i32 0, metadata !"", i32 0, i32 0, i64 0, i64 0, i64 0, i32 0, null, metadata !535, i32 0, i32 0} ; [ DW_TAG_subroutine_type ]
!535 = metadata !{metadata !501, metadata !531, metadata !536}
!536 = metadata !{i32 786468, null, metadata !"float", null, i32 0, i64 32, i64 32, i64 0, i32 0, i32 4} ; [ DW_TAG_base_type ]
!537 = metadata !{i32 786478, i32 0, metadata !407, metadata !"rawBitsToDouble", metadata !"rawBitsToDouble", metadata !"_ZNK13ap_fixed_baseILi11ELi5ELb1EL9ap_q_mode5EL9ap_o_mode3ELi0EE15rawBitsToDoubleEy", metadata !408, i32 864, metadata !538, i1 false, i1 false, i32 0, i32 0, null, i32 256, i1 false, null, null, i32 0, metadata !420, i32 864} ; [ DW_TAG_subprogram ]
!538 = metadata !{i32 786453, i32 0, metadata !"", i32 0, i32 0, i64 0, i64 0, i64 0, i32 0, null, metadata !539, i32 0, i32 0} ; [ DW_TAG_subroutine_type ]
!539 = metadata !{metadata !532, metadata !531, metadata !519}
!540 = metadata !{i32 786478, i32 0, metadata !407, metadata !"rawBitsToFloat", metadata !"rawBitsToFloat", metadata !"_ZNK13ap_fixed_baseILi11ELi5ELb1EL9ap_q_mode5EL9ap_o_mode3ELi0EE14rawBitsToFloatEj", metadata !408, i32 873, metadata !541, i1 false, i1 false, i32 0, i32 0, null, i32 256, i1 false, null, null, i32 0, metadata !420, i32 873} ; [ DW_TAG_subprogram ]
!541 = metadata !{i32 786453, i32 0, metadata !"", i32 0, i32 0, i64 0, i64 0, i64 0, i32 0, null, metadata !542, i32 0, i32 0} ; [ DW_TAG_subroutine_type ]
!542 = metadata !{metadata !536, metadata !531, metadata !501}
!543 = metadata !{i32 786478, i32 0, metadata !407, metadata !"ap_fixed_base", metadata !"ap_fixed_base", metadata !"", metadata !408, i32 882, metadata !544, i1 false, i1 false, i32 0, i32 0, null, i32 256, i1 false, null, null, i32 0, metadata !420, i32 882} ; [ DW_TAG_subprogram ]
!544 = metadata !{i32 786453, i32 0, metadata !"", i32 0, i32 0, i64 0, i64 0, i64 0, i32 0, null, metadata !545, i32 0, i32 0} ; [ DW_TAG_subroutine_type ]
!545 = metadata !{null, metadata !430, metadata !532}
!546 = metadata !{i32 786478, i32 0, metadata !407, metadata !"operator=", metadata !"operator=", metadata !"_ZN13ap_fixed_baseILi11ELi5ELb1EL9ap_q_mode5EL9ap_o_mode3ELi0EEaSERKS2_", metadata !408, i32 995, metadata !547, i1 false, i1 false, i32 0, i32 0, null, i32 256, i1 false, null, null, i32 0, metadata !420, i32 995} ; [ DW_TAG_subprogram ]
!547 = metadata !{i32 786453, i32 0, metadata !"", i32 0, i32 0, i64 0, i64 0, i64 0, i32 0, null, metadata !548, i32 0, i32 0} ; [ DW_TAG_subroutine_type ]
!548 = metadata !{metadata !549, metadata !430, metadata !440}
!549 = metadata !{i32 786448, null, null, null, i32 0, i64 0, i64 0, i64 0, i32 0, metadata !407} ; [ DW_TAG_reference_type ]
!550 = metadata !{i32 786478, i32 0, metadata !407, metadata !"operator=", metadata !"operator=", metadata !"_ZN13ap_fixed_baseILi11ELi5ELb1EL9ap_q_mode5EL9ap_o_mode3ELi0EEaSERVKS2_", metadata !408, i32 1002, metadata !551, i1 false, i1 false, i32 0, i32 0, null, i32 256, i1 false, null, null, i32 0, metadata !420, i32 1002} ; [ DW_TAG_subprogram ]
!551 = metadata !{i32 786453, i32 0, metadata !"", i32 0, i32 0, i64 0, i64 0, i64 0, i32 0, null, metadata !552, i32 0, i32 0} ; [ DW_TAG_subroutine_type ]
!552 = metadata !{metadata !549, metadata !430, metadata !469}
!553 = metadata !{i32 786478, i32 0, metadata !407, metadata !"operator=", metadata !"operator=", metadata !"_ZNV13ap_fixed_baseILi11ELi5ELb1EL9ap_q_mode5EL9ap_o_mode3ELi0EEaSERKS2_", metadata !408, i32 1009, metadata !554, i1 false, i1 false, i32 0, i32 0, null, i32 256, i1 false, null, null, i32 0, metadata !420, i32 1009} ; [ DW_TAG_subprogram ]
!554 = metadata !{i32 786453, i32 0, metadata !"", i32 0, i32 0, i64 0, i64 0, i64 0, i32 0, null, metadata !555, i32 0, i32 0} ; [ DW_TAG_subroutine_type ]
!555 = metadata !{null, metadata !556, metadata !440}
!556 = metadata !{i32 786447, i32 0, metadata !"", i32 0, i32 0, i64 64, i64 64, i64 0, i32 64, metadata !471} ; [ DW_TAG_pointer_type ]
!557 = metadata !{i32 786478, i32 0, metadata !407, metadata !"operator=", metadata !"operator=", metadata !"_ZNV13ap_fixed_baseILi11ELi5ELb1EL9ap_q_mode5EL9ap_o_mode3ELi0EEaSERVKS2_", metadata !408, i32 1015, metadata !558, i1 false, i1 false, i32 0, i32 0, null, i32 256, i1 false, null, null, i32 0, metadata !420, i32 1015} ; [ DW_TAG_subprogram ]
!558 = metadata !{i32 786453, i32 0, metadata !"", i32 0, i32 0, i64 0, i64 0, i64 0, i32 0, null, metadata !559, i32 0, i32 0} ; [ DW_TAG_subroutine_type ]
!559 = metadata !{null, metadata !556, metadata !469}
!560 = metadata !{i32 786478, i32 0, metadata !407, metadata !"setBits", metadata !"setBits", metadata !"_ZN13ap_fixed_baseILi11ELi5ELb1EL9ap_q_mode5EL9ap_o_mode3ELi0EE7setBitsEy", metadata !408, i32 1024, metadata !561, i1 false, i1 false, i32 0, i32 0, null, i32 256, i1 false, null, null, i32 0, metadata !420, i32 1024} ; [ DW_TAG_subprogram ]
!561 = metadata !{i32 786453, i32 0, metadata !"", i32 0, i32 0, i64 0, i64 0, i64 0, i32 0, null, metadata !562, i32 0, i32 0} ; [ DW_TAG_subroutine_type ]
!562 = metadata !{metadata !549, metadata !430, metadata !519}
!563 = metadata !{i32 786478, i32 0, metadata !407, metadata !"bitsToFixed", metadata !"bitsToFixed", metadata !"_ZN13ap_fixed_baseILi11ELi5ELb1EL9ap_q_mode5EL9ap_o_mode3ELi0EE11bitsToFixedEy", metadata !408, i32 1030, metadata !564, i1 false, i1 false, i32 0, i32 0, null, i32 256, i1 false, null, null, i32 0, metadata !420, i32 1030} ; [ DW_TAG_subprogram ]
!564 = metadata !{i32 786453, i32 0, metadata !"", i32 0, i32 0, i64 0, i64 0, i64 0, i32 0, null, metadata !565, i32 0, i32 0} ; [ DW_TAG_subroutine_type ]
!565 = metadata !{metadata !407, metadata !519}
!566 = metadata !{i32 786478, i32 0, metadata !407, metadata !"to_ap_int_base", metadata !"to_ap_int_base", metadata !"_ZNK13ap_fixed_baseILi11ELi5ELb1EL9ap_q_mode5EL9ap_o_mode3ELi0EE14to_ap_int_baseEb", metadata !408, i32 1039, metadata !567, i1 false, i1 false, i32 0, i32 0, null, i32 256, i1 false, null, null, i32 0, metadata !420, i32 1039} ; [ DW_TAG_subprogram ]
!567 = metadata !{i32 786453, i32 0, metadata !"", i32 0, i32 0, i64 0, i64 0, i64 0, i32 0, null, metadata !568, i32 0, i32 0} ; [ DW_TAG_subroutine_type ]
!568 = metadata !{metadata !569, metadata !531, metadata !426}
!569 = metadata !{i32 786434, null, metadata !"ap_int_base<5, true, true>", metadata !448, i32 650, i32 0, i32 0, i32 0, i32 4, null, null, i32 0} ; [ DW_TAG_class_type ]
!570 = metadata !{i32 786478, i32 0, metadata !407, metadata !"to_int", metadata !"to_int", metadata !"_ZNK13ap_fixed_baseILi11ELi5ELb1EL9ap_q_mode5EL9ap_o_mode3ELi0EE6to_intEv", metadata !408, i32 1074, metadata !571, i1 false, i1 false, i32 0, i32 0, null, i32 256, i1 false, null, null, i32 0, metadata !420, i32 1074} ; [ DW_TAG_subprogram ]
!571 = metadata !{i32 786453, i32 0, metadata !"", i32 0, i32 0, i64 0, i64 0, i64 0, i32 0, null, metadata !572, i32 0, i32 0} ; [ DW_TAG_subroutine_type ]
!572 = metadata !{metadata !424, metadata !531}
!573 = metadata !{i32 786478, i32 0, metadata !407, metadata !"to_uint", metadata !"to_uint", metadata !"_ZNK13ap_fixed_baseILi11ELi5ELb1EL9ap_q_mode5EL9ap_o_mode3ELi0EE7to_uintEv", metadata !408, i32 1077, metadata !574, i1 false, i1 false, i32 0, i32 0, null, i32 256, i1 false, null, null, i32 0, metadata !420, i32 1077} ; [ DW_TAG_subprogram ]
!574 = metadata !{i32 786453, i32 0, metadata !"", i32 0, i32 0, i64 0, i64 0, i64 0, i32 0, null, metadata !575, i32 0, i32 0} ; [ DW_TAG_subroutine_type ]
!575 = metadata !{metadata !501, metadata !531}
!576 = metadata !{i32 786478, i32 0, metadata !407, metadata !"to_int64", metadata !"to_int64", metadata !"_ZNK13ap_fixed_baseILi11ELi5ELb1EL9ap_q_mode5EL9ap_o_mode3ELi0EE8to_int64Ev", metadata !408, i32 1080, metadata !577, i1 false, i1 false, i32 0, i32 0, null, i32 256, i1 false, null, null, i32 0, metadata !420, i32 1080} ; [ DW_TAG_subprogram ]
!577 = metadata !{i32 786453, i32 0, metadata !"", i32 0, i32 0, i64 0, i64 0, i64 0, i32 0, null, metadata !578, i32 0, i32 0} ; [ DW_TAG_subroutine_type ]
!578 = metadata !{metadata !513, metadata !531}
!579 = metadata !{i32 786478, i32 0, metadata !407, metadata !"to_uint64", metadata !"to_uint64", metadata !"_ZNK13ap_fixed_baseILi11ELi5ELb1EL9ap_q_mode5EL9ap_o_mode3ELi0EE9to_uint64Ev", metadata !408, i32 1083, metadata !580, i1 false, i1 false, i32 0, i32 0, null, i32 256, i1 false, null, null, i32 0, metadata !420, i32 1083} ; [ DW_TAG_subprogram ]
!580 = metadata !{i32 786453, i32 0, metadata !"", i32 0, i32 0, i64 0, i64 0, i64 0, i32 0, null, metadata !581, i32 0, i32 0} ; [ DW_TAG_subroutine_type ]
!581 = metadata !{metadata !518, metadata !531}
!582 = metadata !{i32 786478, i32 0, metadata !407, metadata !"to_double", metadata !"to_double", metadata !"_ZNK13ap_fixed_baseILi11ELi5ELb1EL9ap_q_mode5EL9ap_o_mode3ELi0EE9to_doubleEv", metadata !408, i32 1086, metadata !583, i1 false, i1 false, i32 0, i32 0, null, i32 256, i1 false, null, null, i32 0, metadata !420, i32 1086} ; [ DW_TAG_subprogram ]
!583 = metadata !{i32 786453, i32 0, metadata !"", i32 0, i32 0, i64 0, i64 0, i64 0, i32 0, null, metadata !584, i32 0, i32 0} ; [ DW_TAG_subroutine_type ]
!584 = metadata !{metadata !532, metadata !531}
!585 = metadata !{i32 786478, i32 0, metadata !407, metadata !"to_float", metadata !"to_float", metadata !"_ZNK13ap_fixed_baseILi11ELi5ELb1EL9ap_q_mode5EL9ap_o_mode3ELi0EE8to_floatEv", metadata !408, i32 1139, metadata !586, i1 false, i1 false, i32 0, i32 0, null, i32 256, i1 false, null, null, i32 0, metadata !420, i32 1139} ; [ DW_TAG_subprogram ]
!586 = metadata !{i32 786453, i32 0, metadata !"", i32 0, i32 0, i64 0, i64 0, i64 0, i32 0, null, metadata !587, i32 0, i32 0} ; [ DW_TAG_subroutine_type ]
!587 = metadata !{metadata !536, metadata !531}
!588 = metadata !{i32 786478, i32 0, metadata !407, metadata !"operator double", metadata !"operator double", metadata !"_ZNK13ap_fixed_baseILi11ELi5ELb1EL9ap_q_mode5EL9ap_o_mode3ELi0EEcvdEv", metadata !408, i32 1190, metadata !583, i1 false, i1 false, i32 0, i32 0, null, i32 256, i1 false, null, null, i32 0, metadata !420, i32 1190} ; [ DW_TAG_subprogram ]
!589 = metadata !{i32 786478, i32 0, metadata !407, metadata !"operator float", metadata !"operator float", metadata !"_ZNK13ap_fixed_baseILi11ELi5ELb1EL9ap_q_mode5EL9ap_o_mode3ELi0EEcvfEv", metadata !408, i32 1194, metadata !586, i1 false, i1 false, i32 0, i32 0, null, i32 256, i1 false, null, null, i32 0, metadata !420, i32 1194} ; [ DW_TAG_subprogram ]
!590 = metadata !{i32 786478, i32 0, metadata !407, metadata !"operator char", metadata !"operator char", metadata !"_ZNK13ap_fixed_baseILi11ELi5ELb1EL9ap_q_mode5EL9ap_o_mode3ELi0EEcvcEv", metadata !408, i32 1198, metadata !591, i1 false, i1 false, i32 0, i32 0, null, i32 256, i1 false, null, null, i32 0, metadata !420, i32 1198} ; [ DW_TAG_subprogram ]
!591 = metadata !{i32 786453, i32 0, metadata !"", i32 0, i32 0, i64 0, i64 0, i64 0, i32 0, null, metadata !592, i32 0, i32 0} ; [ DW_TAG_subroutine_type ]
!592 = metadata !{metadata !478, metadata !531}
!593 = metadata !{i32 786478, i32 0, metadata !407, metadata !"operator signed char", metadata !"operator signed char", metadata !"_ZNK13ap_fixed_baseILi11ELi5ELb1EL9ap_q_mode5EL9ap_o_mode3ELi0EEcvaEv", metadata !408, i32 1202, metadata !594, i1 false, i1 false, i32 0, i32 0, null, i32 256, i1 false, null, null, i32 0, metadata !420, i32 1202} ; [ DW_TAG_subprogram ]
!594 = metadata !{i32 786453, i32 0, metadata !"", i32 0, i32 0, i64 0, i64 0, i64 0, i32 0, null, metadata !595, i32 0, i32 0} ; [ DW_TAG_subroutine_type ]
!595 = metadata !{metadata !482, metadata !531}
!596 = metadata !{i32 786478, i32 0, metadata !407, metadata !"operator unsigned char", metadata !"operator unsigned char", metadata !"_ZNK13ap_fixed_baseILi11ELi5ELb1EL9ap_q_mode5EL9ap_o_mode3ELi0EEcvhEv", metadata !408, i32 1206, metadata !597, i1 false, i1 false, i32 0, i32 0, null, i32 256, i1 false, null, null, i32 0, metadata !420, i32 1206} ; [ DW_TAG_subprogram ]
!597 = metadata !{i32 786453, i32 0, metadata !"", i32 0, i32 0, i64 0, i64 0, i64 0, i32 0, null, metadata !598, i32 0, i32 0} ; [ DW_TAG_subroutine_type ]
!598 = metadata !{metadata !486, metadata !531}
!599 = metadata !{i32 786478, i32 0, metadata !407, metadata !"operator short", metadata !"operator short", metadata !"_ZNK13ap_fixed_baseILi11ELi5ELb1EL9ap_q_mode5EL9ap_o_mode3ELi0EEcvsEv", metadata !408, i32 1210, metadata !600, i1 false, i1 false, i32 0, i32 0, null, i32 256, i1 false, null, null, i32 0, metadata !420, i32 1210} ; [ DW_TAG_subprogram ]
!600 = metadata !{i32 786453, i32 0, metadata !"", i32 0, i32 0, i64 0, i64 0, i64 0, i32 0, null, metadata !601, i32 0, i32 0} ; [ DW_TAG_subroutine_type ]
!601 = metadata !{metadata !490, metadata !531}
!602 = metadata !{i32 786478, i32 0, metadata !407, metadata !"operator unsigned short", metadata !"operator unsigned short", metadata !"_ZNK13ap_fixed_baseILi11ELi5ELb1EL9ap_q_mode5EL9ap_o_mode3ELi0EEcvtEv", metadata !408, i32 1214, metadata !603, i1 false, i1 false, i32 0, i32 0, null, i32 256, i1 false, null, null, i32 0, metadata !420, i32 1214} ; [ DW_TAG_subprogram ]
!603 = metadata !{i32 786453, i32 0, metadata !"", i32 0, i32 0, i64 0, i64 0, i64 0, i32 0, null, metadata !604, i32 0, i32 0} ; [ DW_TAG_subroutine_type ]
!604 = metadata !{metadata !494, metadata !531}
!605 = metadata !{i32 786478, i32 0, metadata !407, metadata !"operator int", metadata !"operator int", metadata !"_ZNK13ap_fixed_baseILi11ELi5ELb1EL9ap_q_mode5EL9ap_o_mode3ELi0EEcviEv", metadata !408, i32 1219, metadata !571, i1 false, i1 false, i32 0, i32 0, null, i32 256, i1 false, null, null, i32 0, metadata !420, i32 1219} ; [ DW_TAG_subprogram ]
!606 = metadata !{i32 786478, i32 0, metadata !407, metadata !"operator unsigned int", metadata !"operator unsigned int", metadata !"_ZNK13ap_fixed_baseILi11ELi5ELb1EL9ap_q_mode5EL9ap_o_mode3ELi0EEcvjEv", metadata !408, i32 1223, metadata !574, i1 false, i1 false, i32 0, i32 0, null, i32 256, i1 false, null, null, i32 0, metadata !420, i32 1223} ; [ DW_TAG_subprogram ]
!607 = metadata !{i32 786478, i32 0, metadata !407, metadata !"operator long", metadata !"operator long", metadata !"_ZNK13ap_fixed_baseILi11ELi5ELb1EL9ap_q_mode5EL9ap_o_mode3ELi0EEcvlEv", metadata !408, i32 1228, metadata !608, i1 false, i1 false, i32 0, i32 0, null, i32 256, i1 false, null, null, i32 0, metadata !420, i32 1228} ; [ DW_TAG_subprogram ]
!608 = metadata !{i32 786453, i32 0, metadata !"", i32 0, i32 0, i64 0, i64 0, i64 0, i32 0, null, metadata !609, i32 0, i32 0} ; [ DW_TAG_subroutine_type ]
!609 = metadata !{metadata !505, metadata !531}
!610 = metadata !{i32 786478, i32 0, metadata !407, metadata !"operator unsigned long", metadata !"operator unsigned long", metadata !"_ZNK13ap_fixed_baseILi11ELi5ELb1EL9ap_q_mode5EL9ap_o_mode3ELi0EEcvmEv", metadata !408, i32 1232, metadata !611, i1 false, i1 false, i32 0, i32 0, null, i32 256, i1 false, null, null, i32 0, metadata !420, i32 1232} ; [ DW_TAG_subprogram ]
!611 = metadata !{i32 786453, i32 0, metadata !"", i32 0, i32 0, i64 0, i64 0, i64 0, i32 0, null, metadata !612, i32 0, i32 0} ; [ DW_TAG_subroutine_type ]
!612 = metadata !{metadata !509, metadata !531}
!613 = metadata !{i32 786478, i32 0, metadata !407, metadata !"operator unsigned long long", metadata !"operator unsigned long long", metadata !"_ZNK13ap_fixed_baseILi11ELi5ELb1EL9ap_q_mode5EL9ap_o_mode3ELi0EEcvyEv", metadata !408, i32 1245, metadata !614, i1 false, i1 false, i32 0, i32 0, null, i32 256, i1 false, null, null, i32 0, metadata !420, i32 1245} ; [ DW_TAG_subprogram ]
!614 = metadata !{i32 786453, i32 0, metadata !"", i32 0, i32 0, i64 0, i64 0, i64 0, i32 0, null, metadata !615, i32 0, i32 0} ; [ DW_TAG_subroutine_type ]
!615 = metadata !{metadata !519, metadata !531}
!616 = metadata !{i32 786478, i32 0, metadata !407, metadata !"operator long long", metadata !"operator long long", metadata !"_ZNK13ap_fixed_baseILi11ELi5ELb1EL9ap_q_mode5EL9ap_o_mode3ELi0EEcvxEv", metadata !408, i32 1249, metadata !617, i1 false, i1 false, i32 0, i32 0, null, i32 256, i1 false, null, null, i32 0, metadata !420, i32 1249} ; [ DW_TAG_subprogram ]
!617 = metadata !{i32 786453, i32 0, metadata !"", i32 0, i32 0, i64 0, i64 0, i64 0, i32 0, null, metadata !618, i32 0, i32 0} ; [ DW_TAG_subroutine_type ]
!618 = metadata !{metadata !514, metadata !531}
!619 = metadata !{i32 786478, i32 0, metadata !407, metadata !"length", metadata !"length", metadata !"_ZNK13ap_fixed_baseILi11ELi5ELb1EL9ap_q_mode5EL9ap_o_mode3ELi0EE6lengthEv", metadata !408, i32 1253, metadata !571, i1 false, i1 false, i32 0, i32 0, null, i32 256, i1 false, null, null, i32 0, metadata !420, i32 1253} ; [ DW_TAG_subprogram ]
!620 = metadata !{i32 786478, i32 0, metadata !407, metadata !"countLeadingZeros", metadata !"countLeadingZeros", metadata !"_ZN13ap_fixed_baseILi11ELi5ELb1EL9ap_q_mode5EL9ap_o_mode3ELi0EE17countLeadingZerosEv", metadata !408, i32 1257, metadata !621, i1 false, i1 false, i32 0, i32 0, null, i32 256, i1 false, null, null, i32 0, metadata !420, i32 1257} ; [ DW_TAG_subprogram ]
!621 = metadata !{i32 786453, i32 0, metadata !"", i32 0, i32 0, i64 0, i64 0, i64 0, i32 0, null, metadata !622, i32 0, i32 0} ; [ DW_TAG_subroutine_type ]
!622 = metadata !{metadata !424, metadata !430}
!623 = metadata !{i32 786478, i32 0, metadata !407, metadata !"operator++", metadata !"operator++", metadata !"_ZN13ap_fixed_baseILi11ELi5ELb1EL9ap_q_mode5EL9ap_o_mode3ELi0EEppEv", metadata !408, i32 1358, metadata !624, i1 false, i1 false, i32 0, i32 0, null, i32 256, i1 false, null, null, i32 0, metadata !420, i32 1358} ; [ DW_TAG_subprogram ]
!624 = metadata !{i32 786453, i32 0, metadata !"", i32 0, i32 0, i64 0, i64 0, i64 0, i32 0, null, metadata !625, i32 0, i32 0} ; [ DW_TAG_subroutine_type ]
!625 = metadata !{metadata !549, metadata !430}
!626 = metadata !{i32 786478, i32 0, metadata !407, metadata !"operator--", metadata !"operator--", metadata !"_ZN13ap_fixed_baseILi11ELi5ELb1EL9ap_q_mode5EL9ap_o_mode3ELi0EEmmEv", metadata !408, i32 1362, metadata !624, i1 false, i1 false, i32 0, i32 0, null, i32 256, i1 false, null, null, i32 0, metadata !420, i32 1362} ; [ DW_TAG_subprogram ]
!627 = metadata !{i32 786478, i32 0, metadata !407, metadata !"operator++", metadata !"operator++", metadata !"_ZN13ap_fixed_baseILi11ELi5ELb1EL9ap_q_mode5EL9ap_o_mode3ELi0EEppEi", metadata !408, i32 1370, metadata !628, i1 false, i1 false, i32 0, i32 0, null, i32 256, i1 false, null, null, i32 0, metadata !420, i32 1370} ; [ DW_TAG_subprogram ]
!628 = metadata !{i32 786453, i32 0, metadata !"", i32 0, i32 0, i64 0, i64 0, i64 0, i32 0, null, metadata !629, i32 0, i32 0} ; [ DW_TAG_subroutine_type ]
!629 = metadata !{metadata !441, metadata !430, metadata !424}
!630 = metadata !{i32 786478, i32 0, metadata !407, metadata !"operator--", metadata !"operator--", metadata !"_ZN13ap_fixed_baseILi11ELi5ELb1EL9ap_q_mode5EL9ap_o_mode3ELi0EEmmEi", metadata !408, i32 1376, metadata !628, i1 false, i1 false, i32 0, i32 0, null, i32 256, i1 false, null, null, i32 0, metadata !420, i32 1376} ; [ DW_TAG_subprogram ]
!631 = metadata !{i32 786478, i32 0, metadata !407, metadata !"operator+", metadata !"operator+", metadata !"_ZN13ap_fixed_baseILi11ELi5ELb1EL9ap_q_mode5EL9ap_o_mode3ELi0EEpsEv", metadata !408, i32 1384, metadata !632, i1 false, i1 false, i32 0, i32 0, null, i32 256, i1 false, null, null, i32 0, metadata !420, i32 1384} ; [ DW_TAG_subprogram ]
!632 = metadata !{i32 786453, i32 0, metadata !"", i32 0, i32 0, i64 0, i64 0, i64 0, i32 0, null, metadata !633, i32 0, i32 0} ; [ DW_TAG_subroutine_type ]
!633 = metadata !{metadata !407, metadata !430}
!634 = metadata !{i32 786478, i32 0, metadata !407, metadata !"operator-", metadata !"operator-", metadata !"_ZNK13ap_fixed_baseILi11ELi5ELb1EL9ap_q_mode5EL9ap_o_mode3ELi0EEngEv", metadata !408, i32 1388, metadata !635, i1 false, i1 false, i32 0, i32 0, null, i32 256, i1 false, null, null, i32 0, metadata !420, i32 1388} ; [ DW_TAG_subprogram ]
!635 = metadata !{i32 786453, i32 0, metadata !"", i32 0, i32 0, i64 0, i64 0, i64 0, i32 0, null, metadata !636, i32 0, i32 0} ; [ DW_TAG_subroutine_type ]
!636 = metadata !{metadata !637, metadata !531}
!637 = metadata !{i32 786434, null, metadata !"ap_fixed_base<12, 6, true, 5, 3, 0>", metadata !408, i32 510, i32 0, i32 0, i32 0, i32 4, null, null, i32 0} ; [ DW_TAG_class_type ]
!638 = metadata !{i32 786478, i32 0, metadata !407, metadata !"getNeg", metadata !"getNeg", metadata !"_ZN13ap_fixed_baseILi11ELi5ELb1EL9ap_q_mode5EL9ap_o_mode3ELi0EE6getNegEv", metadata !408, i32 1394, metadata !632, i1 false, i1 false, i32 0, i32 0, null, i32 256, i1 false, null, null, i32 0, metadata !420, i32 1394} ; [ DW_TAG_subprogram ]
!639 = metadata !{i32 786478, i32 0, metadata !407, metadata !"operator!", metadata !"operator!", metadata !"_ZNK13ap_fixed_baseILi11ELi5ELb1EL9ap_q_mode5EL9ap_o_mode3ELi0EEntEv", metadata !408, i32 1402, metadata !640, i1 false, i1 false, i32 0, i32 0, null, i32 256, i1 false, null, null, i32 0, metadata !420, i32 1402} ; [ DW_TAG_subprogram ]
!640 = metadata !{i32 786453, i32 0, metadata !"", i32 0, i32 0, i64 0, i64 0, i64 0, i32 0, null, metadata !641, i32 0, i32 0} ; [ DW_TAG_subroutine_type ]
!641 = metadata !{metadata !426, metadata !531}
!642 = metadata !{i32 786478, i32 0, metadata !407, metadata !"operator~", metadata !"operator~", metadata !"_ZNK13ap_fixed_baseILi11ELi5ELb1EL9ap_q_mode5EL9ap_o_mode3ELi0EEcoEv", metadata !408, i32 1408, metadata !643, i1 false, i1 false, i32 0, i32 0, null, i32 256, i1 false, null, null, i32 0, metadata !420, i32 1408} ; [ DW_TAG_subprogram ]
!643 = metadata !{i32 786453, i32 0, metadata !"", i32 0, i32 0, i64 0, i64 0, i64 0, i32 0, null, metadata !644, i32 0, i32 0} ; [ DW_TAG_subroutine_type ]
!644 = metadata !{metadata !407, metadata !531}
!645 = metadata !{i32 786478, i32 0, metadata !407, metadata !"operator<<", metadata !"operator<<", metadata !"_ZNK13ap_fixed_baseILi11ELi5ELb1EL9ap_q_mode5EL9ap_o_mode3ELi0EElsEi", metadata !408, i32 1431, metadata !646, i1 false, i1 false, i32 0, i32 0, null, i32 256, i1 false, null, null, i32 0, metadata !420, i32 1431} ; [ DW_TAG_subprogram ]
!646 = metadata !{i32 786453, i32 0, metadata !"", i32 0, i32 0, i64 0, i64 0, i64 0, i32 0, null, metadata !647, i32 0, i32 0} ; [ DW_TAG_subroutine_type ]
!647 = metadata !{metadata !407, metadata !531, metadata !424}
!648 = metadata !{i32 786478, i32 0, metadata !407, metadata !"operator<<", metadata !"operator<<", metadata !"_ZNK13ap_fixed_baseILi11ELi5ELb1EL9ap_q_mode5EL9ap_o_mode3ELi0EElsEj", metadata !408, i32 1490, metadata !649, i1 false, i1 false, i32 0, i32 0, null, i32 256, i1 false, null, null, i32 0, metadata !420, i32 1490} ; [ DW_TAG_subprogram ]
!649 = metadata !{i32 786453, i32 0, metadata !"", i32 0, i32 0, i64 0, i64 0, i64 0, i32 0, null, metadata !650, i32 0, i32 0} ; [ DW_TAG_subroutine_type ]
!650 = metadata !{metadata !407, metadata !531, metadata !501}
!651 = metadata !{i32 786478, i32 0, metadata !407, metadata !"operator>>", metadata !"operator>>", metadata !"_ZNK13ap_fixed_baseILi11ELi5ELb1EL9ap_q_mode5EL9ap_o_mode3ELi0EErsEi", metadata !408, i32 1534, metadata !646, i1 false, i1 false, i32 0, i32 0, null, i32 256, i1 false, null, null, i32 0, metadata !420, i32 1534} ; [ DW_TAG_subprogram ]
!652 = metadata !{i32 786478, i32 0, metadata !407, metadata !"operator>>", metadata !"operator>>", metadata !"_ZNK13ap_fixed_baseILi11ELi5ELb1EL9ap_q_mode5EL9ap_o_mode3ELi0EErsEj", metadata !408, i32 1592, metadata !649, i1 false, i1 false, i32 0, i32 0, null, i32 256, i1 false, null, null, i32 0, metadata !420, i32 1592} ; [ DW_TAG_subprogram ]
!653 = metadata !{i32 786478, i32 0, metadata !407, metadata !"operator<<=", metadata !"operator<<=", metadata !"_ZN13ap_fixed_baseILi11ELi5ELb1EL9ap_q_mode5EL9ap_o_mode3ELi0EElSEi", metadata !408, i32 1644, metadata !654, i1 false, i1 false, i32 0, i32 0, null, i32 256, i1 false, null, null, i32 0, metadata !420, i32 1644} ; [ DW_TAG_subprogram ]
!654 = metadata !{i32 786453, i32 0, metadata !"", i32 0, i32 0, i64 0, i64 0, i64 0, i32 0, null, metadata !655, i32 0, i32 0} ; [ DW_TAG_subroutine_type ]
!655 = metadata !{metadata !549, metadata !430, metadata !424}
!656 = metadata !{i32 786478, i32 0, metadata !407, metadata !"operator<<=", metadata !"operator<<=", metadata !"_ZN13ap_fixed_baseILi11ELi5ELb1EL9ap_q_mode5EL9ap_o_mode3ELi0EElSEj", metadata !408, i32 1707, metadata !657, i1 false, i1 false, i32 0, i32 0, null, i32 256, i1 false, null, null, i32 0, metadata !420, i32 1707} ; [ DW_TAG_subprogram ]
!657 = metadata !{i32 786453, i32 0, metadata !"", i32 0, i32 0, i64 0, i64 0, i64 0, i32 0, null, metadata !658, i32 0, i32 0} ; [ DW_TAG_subroutine_type ]
!658 = metadata !{metadata !549, metadata !430, metadata !501}
!659 = metadata !{i32 786478, i32 0, metadata !407, metadata !"operator>>=", metadata !"operator>>=", metadata !"_ZN13ap_fixed_baseILi11ELi5ELb1EL9ap_q_mode5EL9ap_o_mode3ELi0EErSEi", metadata !408, i32 1754, metadata !654, i1 false, i1 false, i32 0, i32 0, null, i32 256, i1 false, null, null, i32 0, metadata !420, i32 1754} ; [ DW_TAG_subprogram ]
!660 = metadata !{i32 786478, i32 0, metadata !407, metadata !"operator>>=", metadata !"operator>>=", metadata !"_ZN13ap_fixed_baseILi11ELi5ELb1EL9ap_q_mode5EL9ap_o_mode3ELi0EErSEj", metadata !408, i32 1816, metadata !657, i1 false, i1 false, i32 0, i32 0, null, i32 256, i1 false, null, null, i32 0, metadata !420, i32 1816} ; [ DW_TAG_subprogram ]
!661 = metadata !{i32 786478, i32 0, metadata !407, metadata !"operator==", metadata !"operator==", metadata !"_ZNK13ap_fixed_baseILi11ELi5ELb1EL9ap_q_mode5EL9ap_o_mode3ELi0EEeqEd", metadata !408, i32 1894, metadata !662, i1 false, i1 false, i32 0, i32 0, null, i32 256, i1 false, null, null, i32 0, metadata !420, i32 1894} ; [ DW_TAG_subprogram ]
!662 = metadata !{i32 786453, i32 0, metadata !"", i32 0, i32 0, i64 0, i64 0, i64 0, i32 0, null, metadata !663, i32 0, i32 0} ; [ DW_TAG_subroutine_type ]
!663 = metadata !{metadata !426, metadata !531, metadata !532}
!664 = metadata !{i32 786478, i32 0, metadata !407, metadata !"operator!=", metadata !"operator!=", metadata !"_ZNK13ap_fixed_baseILi11ELi5ELb1EL9ap_q_mode5EL9ap_o_mode3ELi0EEneEd", metadata !408, i32 1895, metadata !662, i1 false, i1 false, i32 0, i32 0, null, i32 256, i1 false, null, null, i32 0, metadata !420, i32 1895} ; [ DW_TAG_subprogram ]
!665 = metadata !{i32 786478, i32 0, metadata !407, metadata !"operator>", metadata !"operator>", metadata !"_ZNK13ap_fixed_baseILi11ELi5ELb1EL9ap_q_mode5EL9ap_o_mode3ELi0EEgtEd", metadata !408, i32 1896, metadata !662, i1 false, i1 false, i32 0, i32 0, null, i32 256, i1 false, null, null, i32 0, metadata !420, i32 1896} ; [ DW_TAG_subprogram ]
!666 = metadata !{i32 786478, i32 0, metadata !407, metadata !"operator>=", metadata !"operator>=", metadata !"_ZNK13ap_fixed_baseILi11ELi5ELb1EL9ap_q_mode5EL9ap_o_mode3ELi0EEgeEd", metadata !408, i32 1897, metadata !662, i1 false, i1 false, i32 0, i32 0, null, i32 256, i1 false, null, null, i32 0, metadata !420, i32 1897} ; [ DW_TAG_subprogram ]
!667 = metadata !{i32 786478, i32 0, metadata !407, metadata !"operator<", metadata !"operator<", metadata !"_ZNK13ap_fixed_baseILi11ELi5ELb1EL9ap_q_mode5EL9ap_o_mode3ELi0EEltEd", metadata !408, i32 1898, metadata !662, i1 false, i1 false, i32 0, i32 0, null, i32 256, i1 false, null, null, i32 0, metadata !420, i32 1898} ; [ DW_TAG_subprogram ]
!668 = metadata !{i32 786478, i32 0, metadata !407, metadata !"operator<=", metadata !"operator<=", metadata !"_ZNK13ap_fixed_baseILi11ELi5ELb1EL9ap_q_mode5EL9ap_o_mode3ELi0EEleEd", metadata !408, i32 1899, metadata !662, i1 false, i1 false, i32 0, i32 0, null, i32 256, i1 false, null, null, i32 0, metadata !420, i32 1899} ; [ DW_TAG_subprogram ]
!669 = metadata !{i32 786478, i32 0, metadata !407, metadata !"operator[]", metadata !"operator[]", metadata !"_ZN13ap_fixed_baseILi11ELi5ELb1EL9ap_q_mode5EL9ap_o_mode3ELi0EEixEj", metadata !408, i32 1902, metadata !670, i1 false, i1 false, i32 0, i32 0, null, i32 256, i1 false, null, null, i32 0, metadata !420, i32 1902} ; [ DW_TAG_subprogram ]
!670 = metadata !{i32 786453, i32 0, metadata !"", i32 0, i32 0, i64 0, i64 0, i64 0, i32 0, null, metadata !671, i32 0, i32 0} ; [ DW_TAG_subroutine_type ]
!671 = metadata !{metadata !672, metadata !430, metadata !501}
!672 = metadata !{i32 786434, null, metadata !"af_bit_ref<11, 5, true, 5, 3, 0>", metadata !408, i32 91, i32 0, i32 0, i32 0, i32 4, null, null, i32 0} ; [ DW_TAG_class_type ]
!673 = metadata !{i32 786478, i32 0, metadata !407, metadata !"operator[]", metadata !"operator[]", metadata !"_ZNK13ap_fixed_baseILi11ELi5ELb1EL9ap_q_mode5EL9ap_o_mode3ELi0EEixEj", metadata !408, i32 1914, metadata !674, i1 false, i1 false, i32 0, i32 0, null, i32 256, i1 false, null, null, i32 0, metadata !420, i32 1914} ; [ DW_TAG_subprogram ]
!674 = metadata !{i32 786453, i32 0, metadata !"", i32 0, i32 0, i64 0, i64 0, i64 0, i32 0, null, metadata !675, i32 0, i32 0} ; [ DW_TAG_subroutine_type ]
!675 = metadata !{metadata !426, metadata !531, metadata !501}
!676 = metadata !{i32 786478, i32 0, metadata !407, metadata !"bit", metadata !"bit", metadata !"_ZN13ap_fixed_baseILi11ELi5ELb1EL9ap_q_mode5EL9ap_o_mode3ELi0EE3bitEj", metadata !408, i32 1919, metadata !670, i1 false, i1 false, i32 0, i32 0, null, i32 256, i1 false, null, null, i32 0, metadata !420, i32 1919} ; [ DW_TAG_subprogram ]
!677 = metadata !{i32 786478, i32 0, metadata !407, metadata !"bit", metadata !"bit", metadata !"_ZNK13ap_fixed_baseILi11ELi5ELb1EL9ap_q_mode5EL9ap_o_mode3ELi0EE3bitEj", metadata !408, i32 1932, metadata !674, i1 false, i1 false, i32 0, i32 0, null, i32 256, i1 false, null, null, i32 0, metadata !420, i32 1932} ; [ DW_TAG_subprogram ]
!678 = metadata !{i32 786478, i32 0, metadata !407, metadata !"get_bit", metadata !"get_bit", metadata !"_ZNK13ap_fixed_baseILi11ELi5ELb1EL9ap_q_mode5EL9ap_o_mode3ELi0EE7get_bitEi", metadata !408, i32 1944, metadata !679, i1 false, i1 false, i32 0, i32 0, null, i32 256, i1 false, null, null, i32 0, metadata !420, i32 1944} ; [ DW_TAG_subprogram ]
!679 = metadata !{i32 786453, i32 0, metadata !"", i32 0, i32 0, i64 0, i64 0, i64 0, i32 0, null, metadata !680, i32 0, i32 0} ; [ DW_TAG_subroutine_type ]
!680 = metadata !{metadata !426, metadata !531, metadata !424}
!681 = metadata !{i32 786478, i32 0, metadata !407, metadata !"get_bit", metadata !"get_bit", metadata !"_ZN13ap_fixed_baseILi11ELi5ELb1EL9ap_q_mode5EL9ap_o_mode3ELi0EE7get_bitEi", metadata !408, i32 1950, metadata !682, i1 false, i1 false, i32 0, i32 0, null, i32 256, i1 false, null, null, i32 0, metadata !420, i32 1950} ; [ DW_TAG_subprogram ]
!682 = metadata !{i32 786453, i32 0, metadata !"", i32 0, i32 0, i64 0, i64 0, i64 0, i32 0, null, metadata !683, i32 0, i32 0} ; [ DW_TAG_subroutine_type ]
!683 = metadata !{metadata !672, metadata !430, metadata !424}
!684 = metadata !{i32 786478, i32 0, metadata !407, metadata !"range", metadata !"range", metadata !"_ZN13ap_fixed_baseILi11ELi5ELb1EL9ap_q_mode5EL9ap_o_mode3ELi0EE5rangeEii", metadata !408, i32 1965, metadata !685, i1 false, i1 false, i32 0, i32 0, null, i32 256, i1 false, null, null, i32 0, metadata !420, i32 1965} ; [ DW_TAG_subprogram ]
!685 = metadata !{i32 786453, i32 0, metadata !"", i32 0, i32 0, i64 0, i64 0, i64 0, i32 0, null, metadata !686, i32 0, i32 0} ; [ DW_TAG_subroutine_type ]
!686 = metadata !{metadata !687, metadata !430, metadata !424, metadata !424}
!687 = metadata !{i32 786434, null, metadata !"af_range_ref<11, 5, true, 5, 3, 0>", metadata !408, i32 236, i32 0, i32 0, i32 0, i32 4, null, null, i32 0} ; [ DW_TAG_class_type ]
!688 = metadata !{i32 786478, i32 0, metadata !407, metadata !"operator()", metadata !"operator()", metadata !"_ZN13ap_fixed_baseILi11ELi5ELb1EL9ap_q_mode5EL9ap_o_mode3ELi0EEclEii", metadata !408, i32 1971, metadata !685, i1 false, i1 false, i32 0, i32 0, null, i32 256, i1 false, null, null, i32 0, metadata !420, i32 1971} ; [ DW_TAG_subprogram ]
!689 = metadata !{i32 786478, i32 0, metadata !407, metadata !"range", metadata !"range", metadata !"_ZNK13ap_fixed_baseILi11ELi5ELb1EL9ap_q_mode5EL9ap_o_mode3ELi0EE5rangeEii", metadata !408, i32 1977, metadata !690, i1 false, i1 false, i32 0, i32 0, null, i32 256, i1 false, null, null, i32 0, metadata !420, i32 1977} ; [ DW_TAG_subprogram ]
!690 = metadata !{i32 786453, i32 0, metadata !"", i32 0, i32 0, i64 0, i64 0, i64 0, i32 0, null, metadata !691, i32 0, i32 0} ; [ DW_TAG_subroutine_type ]
!691 = metadata !{metadata !687, metadata !531, metadata !424, metadata !424}
!692 = metadata !{i32 786478, i32 0, metadata !407, metadata !"operator()", metadata !"operator()", metadata !"_ZNK13ap_fixed_baseILi11ELi5ELb1EL9ap_q_mode5EL9ap_o_mode3ELi0EEclEii", metadata !408, i32 2026, metadata !690, i1 false, i1 false, i32 0, i32 0, null, i32 256, i1 false, null, null, i32 0, metadata !420, i32 2026} ; [ DW_TAG_subprogram ]
!693 = metadata !{i32 786478, i32 0, metadata !407, metadata !"range", metadata !"range", metadata !"_ZN13ap_fixed_baseILi11ELi5ELb1EL9ap_q_mode5EL9ap_o_mode3ELi0EE5rangeEv", metadata !408, i32 2031, metadata !694, i1 false, i1 false, i32 0, i32 0, null, i32 256, i1 false, null, null, i32 0, metadata !420, i32 2031} ; [ DW_TAG_subprogram ]
!694 = metadata !{i32 786453, i32 0, metadata !"", i32 0, i32 0, i64 0, i64 0, i64 0, i32 0, null, metadata !695, i32 0, i32 0} ; [ DW_TAG_subroutine_type ]
!695 = metadata !{metadata !687, metadata !430}
!696 = metadata !{i32 786478, i32 0, metadata !407, metadata !"range", metadata !"range", metadata !"_ZNK13ap_fixed_baseILi11ELi5ELb1EL9ap_q_mode5EL9ap_o_mode3ELi0EE5rangeEv", metadata !408, i32 2036, metadata !697, i1 false, i1 false, i32 0, i32 0, null, i32 256, i1 false, null, null, i32 0, metadata !420, i32 2036} ; [ DW_TAG_subprogram ]
!697 = metadata !{i32 786453, i32 0, metadata !"", i32 0, i32 0, i64 0, i64 0, i64 0, i32 0, null, metadata !698, i32 0, i32 0} ; [ DW_TAG_subroutine_type ]
!698 = metadata !{metadata !687, metadata !531}
!699 = metadata !{i32 786478, i32 0, metadata !407, metadata !"is_zero", metadata !"is_zero", metadata !"_ZNK13ap_fixed_baseILi11ELi5ELb1EL9ap_q_mode5EL9ap_o_mode3ELi0EE7is_zeroEv", metadata !408, i32 2040, metadata !640, i1 false, i1 false, i32 0, i32 0, null, i32 256, i1 false, null, null, i32 0, metadata !420, i32 2040} ; [ DW_TAG_subprogram ]
!700 = metadata !{i32 786478, i32 0, metadata !407, metadata !"is_neg", metadata !"is_neg", metadata !"_ZNK13ap_fixed_baseILi11ELi5ELb1EL9ap_q_mode5EL9ap_o_mode3ELi0EE6is_negEv", metadata !408, i32 2044, metadata !640, i1 false, i1 false, i32 0, i32 0, null, i32 256, i1 false, null, null, i32 0, metadata !420, i32 2044} ; [ DW_TAG_subprogram ]
!701 = metadata !{i32 786478, i32 0, metadata !407, metadata !"wl", metadata !"wl", metadata !"_ZNK13ap_fixed_baseILi11ELi5ELb1EL9ap_q_mode5EL9ap_o_mode3ELi0EE2wlEv", metadata !408, i32 2050, metadata !571, i1 false, i1 false, i32 0, i32 0, null, i32 256, i1 false, null, null, i32 0, metadata !420, i32 2050} ; [ DW_TAG_subprogram ]
!702 = metadata !{i32 786478, i32 0, metadata !407, metadata !"iwl", metadata !"iwl", metadata !"_ZNK13ap_fixed_baseILi11ELi5ELb1EL9ap_q_mode5EL9ap_o_mode3ELi0EE3iwlEv", metadata !408, i32 2054, metadata !571, i1 false, i1 false, i32 0, i32 0, null, i32 256, i1 false, null, null, i32 0, metadata !420, i32 2054} ; [ DW_TAG_subprogram ]
!703 = metadata !{i32 786478, i32 0, metadata !407, metadata !"q_mode", metadata !"q_mode", metadata !"_ZNK13ap_fixed_baseILi11ELi5ELb1EL9ap_q_mode5EL9ap_o_mode3ELi0EE6q_modeEv", metadata !408, i32 2058, metadata !704, i1 false, i1 false, i32 0, i32 0, null, i32 256, i1 false, null, null, i32 0, metadata !420, i32 2058} ; [ DW_TAG_subprogram ]
!704 = metadata !{i32 786453, i32 0, metadata !"", i32 0, i32 0, i64 0, i64 0, i64 0, i32 0, null, metadata !705, i32 0, i32 0} ; [ DW_TAG_subroutine_type ]
!705 = metadata !{metadata !447, metadata !531}
!706 = metadata !{i32 786478, i32 0, metadata !407, metadata !"o_mode", metadata !"o_mode", metadata !"_ZNK13ap_fixed_baseILi11ELi5ELb1EL9ap_q_mode5EL9ap_o_mode3ELi0EE6o_modeEv", metadata !408, i32 2062, metadata !707, i1 false, i1 false, i32 0, i32 0, null, i32 256, i1 false, null, null, i32 0, metadata !420, i32 2062} ; [ DW_TAG_subprogram ]
!707 = metadata !{i32 786453, i32 0, metadata !"", i32 0, i32 0, i64 0, i64 0, i64 0, i32 0, null, metadata !708, i32 0, i32 0} ; [ DW_TAG_subroutine_type ]
!708 = metadata !{metadata !458, metadata !531}
!709 = metadata !{i32 786478, i32 0, metadata !407, metadata !"n_bits", metadata !"n_bits", metadata !"_ZNK13ap_fixed_baseILi11ELi5ELb1EL9ap_q_mode5EL9ap_o_mode3ELi0EE6n_bitsEv", metadata !408, i32 2066, metadata !571, i1 false, i1 false, i32 0, i32 0, null, i32 256, i1 false, null, null, i32 0, metadata !420, i32 2066} ; [ DW_TAG_subprogram ]
!710 = metadata !{i32 786478, i32 0, metadata !407, metadata !"to_string", metadata !"to_string", metadata !"_ZN13ap_fixed_baseILi11ELi5ELb1EL9ap_q_mode5EL9ap_o_mode3ELi0EE9to_stringE8BaseMode", metadata !408, i32 2070, metadata !711, i1 false, i1 false, i32 0, i32 0, null, i32 256, i1 false, null, null, i32 0, metadata !420, i32 2070} ; [ DW_TAG_subprogram ]
!711 = metadata !{i32 786453, i32 0, metadata !"", i32 0, i32 0, i64 0, i64 0, i64 0, i32 0, null, metadata !712, i32 0, i32 0} ; [ DW_TAG_subroutine_type ]
!712 = metadata !{metadata !713, metadata !430, metadata !714}
!713 = metadata !{i32 786447, null, metadata !"", null, i32 0, i64 64, i64 64, i64 0, i32 0, metadata !478} ; [ DW_TAG_pointer_type ]
!714 = metadata !{i32 786436, null, metadata !"BaseMode", metadata !448, i32 602, i64 5, i64 8, i32 0, i32 0, null, metadata !715, i32 0, i32 0} ; [ DW_TAG_enumeration_type ]
!715 = metadata !{metadata !716, metadata !717, metadata !718, metadata !719}
!716 = metadata !{i32 786472, metadata !"SC_BIN", i64 2} ; [ DW_TAG_enumerator ]
!717 = metadata !{i32 786472, metadata !"SC_OCT", i64 8} ; [ DW_TAG_enumerator ]
!718 = metadata !{i32 786472, metadata !"SC_DEC", i64 10} ; [ DW_TAG_enumerator ]
!719 = metadata !{i32 786472, metadata !"SC_HEX", i64 16} ; [ DW_TAG_enumerator ]
!720 = metadata !{i32 786478, i32 0, metadata !407, metadata !"to_string", metadata !"to_string", metadata !"_ZN13ap_fixed_baseILi11ELi5ELb1EL9ap_q_mode5EL9ap_o_mode3ELi0EE9to_stringEa", metadata !408, i32 2074, metadata !721, i1 false, i1 false, i32 0, i32 0, null, i32 256, i1 false, null, null, i32 0, metadata !420, i32 2074} ; [ DW_TAG_subprogram ]
!721 = metadata !{i32 786453, i32 0, metadata !"", i32 0, i32 0, i64 0, i64 0, i64 0, i32 0, null, metadata !722, i32 0, i32 0} ; [ DW_TAG_subroutine_type ]
!722 = metadata !{metadata !713, metadata !430, metadata !482}
!723 = metadata !{metadata !724, metadata !725, metadata !425, metadata !726, metadata !727, metadata !728}
!724 = metadata !{i32 786480, null, metadata !"_AP_W", metadata !424, i64 11, null, i32 0, i32 0} ; [ DW_TAG_template_value_parameter ]
!725 = metadata !{i32 786480, null, metadata !"_AP_I", metadata !424, i64 5, null, i32 0, i32 0} ; [ DW_TAG_template_value_parameter ]
!726 = metadata !{i32 786480, null, metadata !"_AP_Q", metadata !447, i64 5, null, i32 0, i32 0} ; [ DW_TAG_template_value_parameter ]
!727 = metadata !{i32 786480, null, metadata !"_AP_O", metadata !458, i64 3, null, i32 0, i32 0} ; [ DW_TAG_template_value_parameter ]
!728 = metadata !{i32 786480, null, metadata !"_AP_N", metadata !424, i64 0, null, i32 0, i32 0} ; [ DW_TAG_template_value_parameter ]
!729 = metadata !{i32 786478, i32 0, metadata !403, metadata !"ap_fixed", metadata !"ap_fixed", metadata !"", metadata !404, i32 290, metadata !730, i1 false, i1 false, i32 0, i32 0, null, i32 256, i1 false, null, null, i32 0, metadata !420, i32 290} ; [ DW_TAG_subprogram ]
!730 = metadata !{i32 786453, i32 0, metadata !"", i32 0, i32 0, i64 0, i64 0, i64 0, i32 0, null, metadata !731, i32 0, i32 0} ; [ DW_TAG_subroutine_type ]
!731 = metadata !{null, metadata !732}
!732 = metadata !{i32 786447, i32 0, metadata !"", i32 0, i32 0, i64 64, i64 64, i64 0, i32 64, metadata !403} ; [ DW_TAG_pointer_type ]
!733 = metadata !{i32 786478, i32 0, metadata !403, metadata !"ap_fixed", metadata !"ap_fixed", metadata !"", metadata !404, i32 362, metadata !734, i1 false, i1 false, i32 0, i32 0, null, i32 256, i1 false, null, null, i32 0, metadata !420, i32 362} ; [ DW_TAG_subprogram ]
!734 = metadata !{i32 786453, i32 0, metadata !"", i32 0, i32 0, i64 0, i64 0, i64 0, i32 0, null, metadata !735, i32 0, i32 0} ; [ DW_TAG_subroutine_type ]
!735 = metadata !{null, metadata !732, metadata !426}
!736 = metadata !{i32 786478, i32 0, metadata !403, metadata !"ap_fixed", metadata !"ap_fixed", metadata !"", metadata !404, i32 363, metadata !737, i1 false, i1 false, i32 0, i32 0, null, i32 256, i1 false, null, null, i32 0, metadata !420, i32 363} ; [ DW_TAG_subprogram ]
!737 = metadata !{i32 786453, i32 0, metadata !"", i32 0, i32 0, i64 0, i64 0, i64 0, i32 0, null, metadata !738, i32 0, i32 0} ; [ DW_TAG_subroutine_type ]
!738 = metadata !{null, metadata !732, metadata !482}
!739 = metadata !{i32 786478, i32 0, metadata !403, metadata !"ap_fixed", metadata !"ap_fixed", metadata !"", metadata !404, i32 364, metadata !740, i1 false, i1 false, i32 0, i32 0, null, i32 256, i1 false, null, null, i32 0, metadata !420, i32 364} ; [ DW_TAG_subprogram ]
!740 = metadata !{i32 786453, i32 0, metadata !"", i32 0, i32 0, i64 0, i64 0, i64 0, i32 0, null, metadata !741, i32 0, i32 0} ; [ DW_TAG_subroutine_type ]
!741 = metadata !{null, metadata !732, metadata !486}
!742 = metadata !{i32 786478, i32 0, metadata !403, metadata !"ap_fixed", metadata !"ap_fixed", metadata !"", metadata !404, i32 365, metadata !743, i1 false, i1 false, i32 0, i32 0, null, i32 256, i1 false, null, null, i32 0, metadata !420, i32 365} ; [ DW_TAG_subprogram ]
!743 = metadata !{i32 786453, i32 0, metadata !"", i32 0, i32 0, i64 0, i64 0, i64 0, i32 0, null, metadata !744, i32 0, i32 0} ; [ DW_TAG_subroutine_type ]
!744 = metadata !{null, metadata !732, metadata !490}
!745 = metadata !{i32 786478, i32 0, metadata !403, metadata !"ap_fixed", metadata !"ap_fixed", metadata !"", metadata !404, i32 366, metadata !746, i1 false, i1 false, i32 0, i32 0, null, i32 256, i1 false, null, null, i32 0, metadata !420, i32 366} ; [ DW_TAG_subprogram ]
!746 = metadata !{i32 786453, i32 0, metadata !"", i32 0, i32 0, i64 0, i64 0, i64 0, i32 0, null, metadata !747, i32 0, i32 0} ; [ DW_TAG_subroutine_type ]
!747 = metadata !{null, metadata !732, metadata !494}
!748 = metadata !{i32 786478, i32 0, metadata !403, metadata !"ap_fixed", metadata !"ap_fixed", metadata !"", metadata !404, i32 367, metadata !749, i1 false, i1 false, i32 0, i32 0, null, i32 256, i1 false, null, null, i32 0, metadata !420, i32 367} ; [ DW_TAG_subprogram ]
!749 = metadata !{i32 786453, i32 0, metadata !"", i32 0, i32 0, i64 0, i64 0, i64 0, i32 0, null, metadata !750, i32 0, i32 0} ; [ DW_TAG_subroutine_type ]
!750 = metadata !{null, metadata !732, metadata !424}
!751 = metadata !{i32 786478, i32 0, metadata !403, metadata !"ap_fixed", metadata !"ap_fixed", metadata !"", metadata !404, i32 368, metadata !752, i1 false, i1 false, i32 0, i32 0, null, i32 256, i1 false, null, null, i32 0, metadata !420, i32 368} ; [ DW_TAG_subprogram ]
!752 = metadata !{i32 786453, i32 0, metadata !"", i32 0, i32 0, i64 0, i64 0, i64 0, i32 0, null, metadata !753, i32 0, i32 0} ; [ DW_TAG_subroutine_type ]
!753 = metadata !{null, metadata !732, metadata !501}
!754 = metadata !{i32 786478, i32 0, metadata !403, metadata !"ap_fixed", metadata !"ap_fixed", metadata !"", metadata !404, i32 369, metadata !755, i1 false, i1 false, i32 0, i32 0, null, i32 256, i1 false, null, null, i32 0, metadata !420, i32 369} ; [ DW_TAG_subprogram ]
!755 = metadata !{i32 786453, i32 0, metadata !"", i32 0, i32 0, i64 0, i64 0, i64 0, i32 0, null, metadata !756, i32 0, i32 0} ; [ DW_TAG_subroutine_type ]
!756 = metadata !{null, metadata !732, metadata !505}
!757 = metadata !{i32 786478, i32 0, metadata !403, metadata !"ap_fixed", metadata !"ap_fixed", metadata !"", metadata !404, i32 370, metadata !758, i1 false, i1 false, i32 0, i32 0, null, i32 256, i1 false, null, null, i32 0, metadata !420, i32 370} ; [ DW_TAG_subprogram ]
!758 = metadata !{i32 786453, i32 0, metadata !"", i32 0, i32 0, i64 0, i64 0, i64 0, i32 0, null, metadata !759, i32 0, i32 0} ; [ DW_TAG_subroutine_type ]
!759 = metadata !{null, metadata !732, metadata !509}
!760 = metadata !{i32 786478, i32 0, metadata !403, metadata !"ap_fixed", metadata !"ap_fixed", metadata !"", metadata !404, i32 371, metadata !761, i1 false, i1 false, i32 0, i32 0, null, i32 256, i1 false, null, null, i32 0, metadata !420, i32 371} ; [ DW_TAG_subprogram ]
!761 = metadata !{i32 786453, i32 0, metadata !"", i32 0, i32 0, i64 0, i64 0, i64 0, i32 0, null, metadata !762, i32 0, i32 0} ; [ DW_TAG_subroutine_type ]
!762 = metadata !{null, metadata !732, metadata !519}
!763 = metadata !{i32 786478, i32 0, metadata !403, metadata !"ap_fixed", metadata !"ap_fixed", metadata !"", metadata !404, i32 372, metadata !764, i1 false, i1 false, i32 0, i32 0, null, i32 256, i1 false, null, null, i32 0, metadata !420, i32 372} ; [ DW_TAG_subprogram ]
!764 = metadata !{i32 786453, i32 0, metadata !"", i32 0, i32 0, i64 0, i64 0, i64 0, i32 0, null, metadata !765, i32 0, i32 0} ; [ DW_TAG_subroutine_type ]
!765 = metadata !{null, metadata !732, metadata !514}
!766 = metadata !{i32 786478, i32 0, metadata !403, metadata !"ap_fixed", metadata !"ap_fixed", metadata !"", metadata !404, i32 373, metadata !767, i1 false, i1 false, i32 0, i32 0, null, i32 256, i1 false, null, null, i32 0, metadata !420, i32 373} ; [ DW_TAG_subprogram ]
!767 = metadata !{i32 786453, i32 0, metadata !"", i32 0, i32 0, i64 0, i64 0, i64 0, i32 0, null, metadata !768, i32 0, i32 0} ; [ DW_TAG_subroutine_type ]
!768 = metadata !{null, metadata !732, metadata !536}
!769 = metadata !{i32 786478, i32 0, metadata !403, metadata !"ap_fixed", metadata !"ap_fixed", metadata !"", metadata !404, i32 374, metadata !770, i1 false, i1 false, i32 0, i32 0, null, i32 256, i1 false, null, null, i32 0, metadata !420, i32 374} ; [ DW_TAG_subprogram ]
!770 = metadata !{i32 786453, i32 0, metadata !"", i32 0, i32 0, i64 0, i64 0, i64 0, i32 0, null, metadata !771, i32 0, i32 0} ; [ DW_TAG_subroutine_type ]
!771 = metadata !{null, metadata !732, metadata !532}
!772 = metadata !{i32 786478, i32 0, metadata !403, metadata !"ap_fixed", metadata !"ap_fixed", metadata !"", metadata !404, i32 376, metadata !773, i1 false, i1 false, i32 0, i32 0, null, i32 256, i1 false, null, null, i32 0, metadata !420, i32 376} ; [ DW_TAG_subprogram ]
!773 = metadata !{i32 786453, i32 0, metadata !"", i32 0, i32 0, i64 0, i64 0, i64 0, i32 0, null, metadata !774, i32 0, i32 0} ; [ DW_TAG_subroutine_type ]
!774 = metadata !{null, metadata !732, metadata !523}
!775 = metadata !{i32 786478, i32 0, metadata !403, metadata !"ap_fixed", metadata !"ap_fixed", metadata !"", metadata !404, i32 377, metadata !776, i1 false, i1 false, i32 0, i32 0, null, i32 256, i1 false, null, null, i32 0, metadata !420, i32 377} ; [ DW_TAG_subprogram ]
!776 = metadata !{i32 786453, i32 0, metadata !"", i32 0, i32 0, i64 0, i64 0, i64 0, i32 0, null, metadata !777, i32 0, i32 0} ; [ DW_TAG_subroutine_type ]
!777 = metadata !{null, metadata !732, metadata !523, metadata !482}
!778 = metadata !{i32 786478, i32 0, metadata !403, metadata !"operator=", metadata !"operator=", metadata !"_ZN8ap_fixedILi11ELi5EL9ap_q_mode5EL9ap_o_mode3ELi0EEaSERKS2_", metadata !404, i32 380, metadata !779, i1 false, i1 false, i32 0, i32 0, null, i32 256, i1 false, null, null, i32 0, metadata !420, i32 380} ; [ DW_TAG_subprogram ]
!779 = metadata !{i32 786453, i32 0, metadata !"", i32 0, i32 0, i64 0, i64 0, i64 0, i32 0, null, metadata !780, i32 0, i32 0} ; [ DW_TAG_subroutine_type ]
!780 = metadata !{metadata !402, metadata !732, metadata !781}
!781 = metadata !{i32 786448, null, null, null, i32 0, i64 0, i64 0, i64 0, i32 0, metadata !782} ; [ DW_TAG_reference_type ]
!782 = metadata !{i32 786470, null, metadata !"", null, i32 0, i64 0, i64 0, i64 0, i32 0, metadata !403} ; [ DW_TAG_const_type ]
!783 = metadata !{i32 786478, i32 0, metadata !403, metadata !"operator=", metadata !"operator=", metadata !"_ZN8ap_fixedILi11ELi5EL9ap_q_mode5EL9ap_o_mode3ELi0EEaSERVKS2_", metadata !404, i32 386, metadata !784, i1 false, i1 false, i32 0, i32 0, null, i32 256, i1 false, null, null, i32 0, metadata !420, i32 386} ; [ DW_TAG_subprogram ]
!784 = metadata !{i32 786453, i32 0, metadata !"", i32 0, i32 0, i64 0, i64 0, i64 0, i32 0, null, metadata !785, i32 0, i32 0} ; [ DW_TAG_subroutine_type ]
!785 = metadata !{metadata !402, metadata !732, metadata !786}
!786 = metadata !{i32 786448, null, null, null, i32 0, i64 0, i64 0, i64 0, i32 0, metadata !787} ; [ DW_TAG_reference_type ]
!787 = metadata !{i32 786470, null, metadata !"", null, i32 0, i64 0, i64 0, i64 0, i32 0, metadata !788} ; [ DW_TAG_const_type ]
!788 = metadata !{i32 786485, null, metadata !"", null, i32 0, i64 0, i64 0, i64 0, i32 0, metadata !403} ; [ DW_TAG_volatile_type ]
!789 = metadata !{i32 786478, i32 0, metadata !403, metadata !"operator=", metadata !"operator=", metadata !"_ZNV8ap_fixedILi11ELi5EL9ap_q_mode5EL9ap_o_mode3ELi0EEaSERKS2_", metadata !404, i32 391, metadata !790, i1 false, i1 false, i32 0, i32 0, null, i32 256, i1 false, null, null, i32 0, metadata !420, i32 391} ; [ DW_TAG_subprogram ]
!790 = metadata !{i32 786453, i32 0, metadata !"", i32 0, i32 0, i64 0, i64 0, i64 0, i32 0, null, metadata !791, i32 0, i32 0} ; [ DW_TAG_subroutine_type ]
!791 = metadata !{null, metadata !792, metadata !781}
!792 = metadata !{i32 786447, i32 0, metadata !"", i32 0, i32 0, i64 64, i64 64, i64 0, i32 64, metadata !788} ; [ DW_TAG_pointer_type ]
!793 = metadata !{i32 786478, i32 0, metadata !403, metadata !"operator=", metadata !"operator=", metadata !"_ZNV8ap_fixedILi11ELi5EL9ap_q_mode5EL9ap_o_mode3ELi0EEaSERVKS2_", metadata !404, i32 396, metadata !794, i1 false, i1 false, i32 0, i32 0, null, i32 256, i1 false, null, null, i32 0, metadata !420, i32 396} ; [ DW_TAG_subprogram ]
!794 = metadata !{i32 786453, i32 0, metadata !"", i32 0, i32 0, i64 0, i64 0, i64 0, i32 0, null, metadata !795, i32 0, i32 0} ; [ DW_TAG_subroutine_type ]
!795 = metadata !{null, metadata !792, metadata !786}
!796 = metadata !{i32 786478, i32 0, metadata !403, metadata !"~ap_fixed", metadata !"~ap_fixed", metadata !"", metadata !404, i32 287, metadata !730, i1 false, i1 false, i32 0, i32 0, null, i32 320, i1 false, null, null, i32 0, metadata !420, i32 287} ; [ DW_TAG_subprogram ]
!797 = metadata !{metadata !724, metadata !725, metadata !726, metadata !727, metadata !728}
!798 = metadata !{i32 786448, null, null, null, i32 0, i64 0, i64 0, i64 0, i32 0, metadata !799} ; [ DW_TAG_reference_type ]
!799 = metadata !{i32 786434, null, metadata !"ap_fixed<14, 4, 5, 3, 0>", metadata !404, i32 287, i64 16, i64 16, i32 0, i32 0, null, metadata !800, i32 0, null, metadata !9868} ; [ DW_TAG_class_type ]
!800 = metadata !{metadata !801, metadata !9789, metadata !9793, metadata !9799, metadata !9805, metadata !9808, metadata !9811, metadata !9814, metadata !9817, metadata !9820, metadata !9823, metadata !9826, metadata !9829, metadata !9832, metadata !9835, metadata !9838, metadata !9841, metadata !9844, metadata !9847, metadata !9850, metadata !9853, metadata !9856, metadata !9859, metadata !9863, metadata !9866, metadata !9867}
!801 = metadata !{i32 786460, metadata !799, null, metadata !404, i32 0, i64 0, i64 0, i64 0, i32 0, metadata !802} ; [ DW_TAG_inheritance ]
!802 = metadata !{i32 786434, null, metadata !"ap_fixed_base<14, 4, true, 5, 3, 0>", metadata !408, i32 510, i64 16, i64 16, i32 0, i32 0, null, metadata !803, i32 0, null, metadata !9787} ; [ DW_TAG_class_type ]
!803 = metadata !{metadata !804, metadata !820, metadata !824, metadata !827, metadata !830, metadata !838, metadata !844, metadata !847, metadata !850, metadata !853, metadata !856, metadata !859, metadata !862, metadata !865, metadata !868, metadata !871, metadata !874, metadata !877, metadata !880, metadata !883, metadata !886, metadata !890, metadata !893, metadata !896, metadata !899, metadata !902, metadata !906, metadata !909, metadata !913, metadata !916, metadata !919, metadata !922, metadata !4243, metadata !4246, metadata !4249, metadata !4252, metadata !4255, metadata !4258, metadata !4261, metadata !4262, metadata !4263, metadata !4266, metadata !4269, metadata !4272, metadata !4275, metadata !4278, metadata !4279, metadata !4280, metadata !4283, metadata !4286, metadata !4289, metadata !4292, metadata !4293, metadata !4296, metadata !4568, metadata !9686, metadata !9690, metadata !9691, metadata !9694, metadata !9695, metadata !9698, metadata !9699, metadata !9702, metadata !9705, metadata !9706, metadata !9709, metadata !9712, metadata !9715, metadata !9718, metadata !9719, metadata !9720, metadata !9723, metadata !9726, metadata !9727, metadata !9728, metadata !9731, metadata !9734, metadata !9735, metadata !9736, metadata !9737, metadata !9738, metadata !9739, metadata !9743, metadata !9746, metadata !9747, metadata !9748, metadata !9751, metadata !9754, metadata !9758, metadata !9759, metadata !9762, metadata !9763, metadata !9766, metadata !9769, metadata !9770, metadata !9771, metadata !9772, metadata !9773, metadata !9776, metadata !9779, metadata !9780, metadata !9783, metadata !9786}
!804 = metadata !{i32 786460, metadata !802, null, metadata !408, i32 0, i64 0, i64 0, i64 0, i32 0, metadata !805} ; [ DW_TAG_inheritance ]
!805 = metadata !{i32 786434, null, metadata !"ssdm_int<14 + 1024 * 0, true>", metadata !412, i32 16, i64 16, i64 16, i32 0, i32 0, null, metadata !806, i32 0, null, metadata !818} ; [ DW_TAG_class_type ]
!806 = metadata !{metadata !807, metadata !809, metadata !813}
!807 = metadata !{i32 786445, metadata !805, metadata !"V", metadata !412, i32 16, i64 14, i64 16, i64 0, i32 0, metadata !808} ; [ DW_TAG_member ]
!808 = metadata !{i32 786468, null, metadata !"int14", null, i32 0, i64 14, i64 16, i64 0, i32 0, i32 5} ; [ DW_TAG_base_type ]
!809 = metadata !{i32 786478, i32 0, metadata !805, metadata !"ssdm_int", metadata !"ssdm_int", metadata !"", metadata !412, i32 16, metadata !810, i1 false, i1 false, i32 0, i32 0, null, i32 256, i1 false, null, null, i32 0, metadata !420, i32 16} ; [ DW_TAG_subprogram ]
!810 = metadata !{i32 786453, i32 0, metadata !"", i32 0, i32 0, i64 0, i64 0, i64 0, i32 0, null, metadata !811, i32 0, i32 0} ; [ DW_TAG_subroutine_type ]
!811 = metadata !{null, metadata !812}
!812 = metadata !{i32 786447, i32 0, metadata !"", i32 0, i32 0, i64 64, i64 64, i64 0, i32 64, metadata !805} ; [ DW_TAG_pointer_type ]
!813 = metadata !{i32 786478, i32 0, metadata !805, metadata !"ssdm_int", metadata !"ssdm_int", metadata !"", metadata !412, i32 16, metadata !814, i1 false, i1 false, i32 0, i32 0, null, i32 320, i1 false, null, null, i32 0, metadata !420, i32 16} ; [ DW_TAG_subprogram ]
!814 = metadata !{i32 786453, i32 0, metadata !"", i32 0, i32 0, i64 0, i64 0, i64 0, i32 0, null, metadata !815, i32 0, i32 0} ; [ DW_TAG_subroutine_type ]
!815 = metadata !{null, metadata !812, metadata !816}
!816 = metadata !{i32 786448, null, null, null, i32 0, i64 0, i64 0, i64 0, i32 0, metadata !817} ; [ DW_TAG_reference_type ]
!817 = metadata !{i32 786470, null, metadata !"", null, i32 0, i64 0, i64 0, i64 0, i32 0, metadata !805} ; [ DW_TAG_const_type ]
!818 = metadata !{metadata !819, metadata !425}
!819 = metadata !{i32 786480, null, metadata !"_AP_N", metadata !424, i64 14, null, i32 0, i32 0} ; [ DW_TAG_template_value_parameter ]
!820 = metadata !{i32 786478, i32 0, metadata !802, metadata !"overflow_adjust", metadata !"overflow_adjust", metadata !"_ZN13ap_fixed_baseILi14ELi4ELb1EL9ap_q_mode5EL9ap_o_mode3ELi0EE15overflow_adjustEbbbb", metadata !408, i32 520, metadata !821, i1 false, i1 false, i32 0, i32 0, null, i32 256, i1 false, null, null, i32 0, metadata !420, i32 520} ; [ DW_TAG_subprogram ]
!821 = metadata !{i32 786453, i32 0, metadata !"", i32 0, i32 0, i64 0, i64 0, i64 0, i32 0, null, metadata !822, i32 0, i32 0} ; [ DW_TAG_subroutine_type ]
!822 = metadata !{null, metadata !823, metadata !426, metadata !426, metadata !426, metadata !426}
!823 = metadata !{i32 786447, i32 0, metadata !"", i32 0, i32 0, i64 64, i64 64, i64 0, i32 64, metadata !802} ; [ DW_TAG_pointer_type ]
!824 = metadata !{i32 786478, i32 0, metadata !802, metadata !"quantization_adjust", metadata !"quantization_adjust", metadata !"_ZN13ap_fixed_baseILi14ELi4ELb1EL9ap_q_mode5EL9ap_o_mode3ELi0EE19quantization_adjustEbbb", metadata !408, i32 593, metadata !825, i1 false, i1 false, i32 0, i32 0, null, i32 256, i1 false, null, null, i32 0, metadata !420, i32 593} ; [ DW_TAG_subprogram ]
!825 = metadata !{i32 786453, i32 0, metadata !"", i32 0, i32 0, i64 0, i64 0, i64 0, i32 0, null, metadata !826, i32 0, i32 0} ; [ DW_TAG_subroutine_type ]
!826 = metadata !{metadata !426, metadata !823, metadata !426, metadata !426, metadata !426}
!827 = metadata !{i32 786478, i32 0, metadata !802, metadata !"ap_fixed_base", metadata !"ap_fixed_base", metadata !"", metadata !408, i32 651, metadata !828, i1 false, i1 false, i32 0, i32 0, null, i32 256, i1 false, null, null, i32 0, metadata !420, i32 651} ; [ DW_TAG_subprogram ]
!828 = metadata !{i32 786453, i32 0, metadata !"", i32 0, i32 0, i64 0, i64 0, i64 0, i32 0, null, metadata !829, i32 0, i32 0} ; [ DW_TAG_subroutine_type ]
!829 = metadata !{null, metadata !823}
!830 = metadata !{i32 786478, i32 0, metadata !802, metadata !"ap_fixed_base<14, 4, true, 5, 3, 0>", metadata !"ap_fixed_base<14, 4, true, 5, 3, 0>", metadata !"", metadata !408, i32 661, metadata !831, i1 false, i1 false, i32 0, i32 0, null, i32 256, i1 false, null, metadata !835, i32 0, metadata !420, i32 661} ; [ DW_TAG_subprogram ]
!831 = metadata !{i32 786453, i32 0, metadata !"", i32 0, i32 0, i64 0, i64 0, i64 0, i32 0, null, metadata !832, i32 0, i32 0} ; [ DW_TAG_subroutine_type ]
!832 = metadata !{null, metadata !823, metadata !833}
!833 = metadata !{i32 786448, null, null, null, i32 0, i64 0, i64 0, i64 0, i32 0, metadata !834} ; [ DW_TAG_reference_type ]
!834 = metadata !{i32 786470, null, metadata !"", null, i32 0, i64 0, i64 0, i64 0, i32 0, metadata !802} ; [ DW_TAG_const_type ]
!835 = metadata !{metadata !836, metadata !837, metadata !445, metadata !446, metadata !457, metadata !465}
!836 = metadata !{i32 786480, null, metadata !"_AP_W2", metadata !424, i64 14, null, i32 0, i32 0} ; [ DW_TAG_template_value_parameter ]
!837 = metadata !{i32 786480, null, metadata !"_AP_I2", metadata !424, i64 4, null, i32 0, i32 0} ; [ DW_TAG_template_value_parameter ]
!838 = metadata !{i32 786478, i32 0, metadata !802, metadata !"ap_fixed_base<14, 4, true, 5, 3, 0>", metadata !"ap_fixed_base<14, 4, true, 5, 3, 0>", metadata !"", metadata !408, i32 775, metadata !839, i1 false, i1 false, i32 0, i32 0, null, i32 256, i1 false, null, metadata !835, i32 0, metadata !420, i32 775} ; [ DW_TAG_subprogram ]
!839 = metadata !{i32 786453, i32 0, metadata !"", i32 0, i32 0, i64 0, i64 0, i64 0, i32 0, null, metadata !840, i32 0, i32 0} ; [ DW_TAG_subroutine_type ]
!840 = metadata !{null, metadata !823, metadata !841}
!841 = metadata !{i32 786448, null, null, null, i32 0, i64 0, i64 0, i64 0, i32 0, metadata !842} ; [ DW_TAG_reference_type ]
!842 = metadata !{i32 786470, null, metadata !"", null, i32 0, i64 0, i64 0, i64 0, i32 0, metadata !843} ; [ DW_TAG_const_type ]
!843 = metadata !{i32 786485, null, metadata !"", null, i32 0, i64 0, i64 0, i64 0, i32 0, metadata !802} ; [ DW_TAG_volatile_type ]
!844 = metadata !{i32 786478, i32 0, metadata !802, metadata !"ap_fixed_base", metadata !"ap_fixed_base", metadata !"", metadata !408, i32 787, metadata !845, i1 false, i1 false, i32 0, i32 0, null, i32 256, i1 false, null, null, i32 0, metadata !420, i32 787} ; [ DW_TAG_subprogram ]
!845 = metadata !{i32 786453, i32 0, metadata !"", i32 0, i32 0, i64 0, i64 0, i64 0, i32 0, null, metadata !846, i32 0, i32 0} ; [ DW_TAG_subroutine_type ]
!846 = metadata !{null, metadata !823, metadata !426}
!847 = metadata !{i32 786478, i32 0, metadata !802, metadata !"ap_fixed_base", metadata !"ap_fixed_base", metadata !"", metadata !408, i32 788, metadata !848, i1 false, i1 false, i32 0, i32 0, null, i32 256, i1 false, null, null, i32 0, metadata !420, i32 788} ; [ DW_TAG_subprogram ]
!848 = metadata !{i32 786453, i32 0, metadata !"", i32 0, i32 0, i64 0, i64 0, i64 0, i32 0, null, metadata !849, i32 0, i32 0} ; [ DW_TAG_subroutine_type ]
!849 = metadata !{null, metadata !823, metadata !478}
!850 = metadata !{i32 786478, i32 0, metadata !802, metadata !"ap_fixed_base", metadata !"ap_fixed_base", metadata !"", metadata !408, i32 789, metadata !851, i1 false, i1 false, i32 0, i32 0, null, i32 256, i1 false, null, null, i32 0, metadata !420, i32 789} ; [ DW_TAG_subprogram ]
!851 = metadata !{i32 786453, i32 0, metadata !"", i32 0, i32 0, i64 0, i64 0, i64 0, i32 0, null, metadata !852, i32 0, i32 0} ; [ DW_TAG_subroutine_type ]
!852 = metadata !{null, metadata !823, metadata !482}
!853 = metadata !{i32 786478, i32 0, metadata !802, metadata !"ap_fixed_base", metadata !"ap_fixed_base", metadata !"", metadata !408, i32 790, metadata !854, i1 false, i1 false, i32 0, i32 0, null, i32 256, i1 false, null, null, i32 0, metadata !420, i32 790} ; [ DW_TAG_subprogram ]
!854 = metadata !{i32 786453, i32 0, metadata !"", i32 0, i32 0, i64 0, i64 0, i64 0, i32 0, null, metadata !855, i32 0, i32 0} ; [ DW_TAG_subroutine_type ]
!855 = metadata !{null, metadata !823, metadata !486}
!856 = metadata !{i32 786478, i32 0, metadata !802, metadata !"ap_fixed_base", metadata !"ap_fixed_base", metadata !"", metadata !408, i32 791, metadata !857, i1 false, i1 false, i32 0, i32 0, null, i32 256, i1 false, null, null, i32 0, metadata !420, i32 791} ; [ DW_TAG_subprogram ]
!857 = metadata !{i32 786453, i32 0, metadata !"", i32 0, i32 0, i64 0, i64 0, i64 0, i32 0, null, metadata !858, i32 0, i32 0} ; [ DW_TAG_subroutine_type ]
!858 = metadata !{null, metadata !823, metadata !490}
!859 = metadata !{i32 786478, i32 0, metadata !802, metadata !"ap_fixed_base", metadata !"ap_fixed_base", metadata !"", metadata !408, i32 792, metadata !860, i1 false, i1 false, i32 0, i32 0, null, i32 256, i1 false, null, null, i32 0, metadata !420, i32 792} ; [ DW_TAG_subprogram ]
!860 = metadata !{i32 786453, i32 0, metadata !"", i32 0, i32 0, i64 0, i64 0, i64 0, i32 0, null, metadata !861, i32 0, i32 0} ; [ DW_TAG_subroutine_type ]
!861 = metadata !{null, metadata !823, metadata !494}
!862 = metadata !{i32 786478, i32 0, metadata !802, metadata !"ap_fixed_base", metadata !"ap_fixed_base", metadata !"", metadata !408, i32 793, metadata !863, i1 false, i1 false, i32 0, i32 0, null, i32 256, i1 false, null, null, i32 0, metadata !420, i32 793} ; [ DW_TAG_subprogram ]
!863 = metadata !{i32 786453, i32 0, metadata !"", i32 0, i32 0, i64 0, i64 0, i64 0, i32 0, null, metadata !864, i32 0, i32 0} ; [ DW_TAG_subroutine_type ]
!864 = metadata !{null, metadata !823, metadata !424}
!865 = metadata !{i32 786478, i32 0, metadata !802, metadata !"ap_fixed_base", metadata !"ap_fixed_base", metadata !"", metadata !408, i32 794, metadata !866, i1 false, i1 false, i32 0, i32 0, null, i32 256, i1 false, null, null, i32 0, metadata !420, i32 794} ; [ DW_TAG_subprogram ]
!866 = metadata !{i32 786453, i32 0, metadata !"", i32 0, i32 0, i64 0, i64 0, i64 0, i32 0, null, metadata !867, i32 0, i32 0} ; [ DW_TAG_subroutine_type ]
!867 = metadata !{null, metadata !823, metadata !501}
!868 = metadata !{i32 786478, i32 0, metadata !802, metadata !"ap_fixed_base", metadata !"ap_fixed_base", metadata !"", metadata !408, i32 796, metadata !869, i1 false, i1 false, i32 0, i32 0, null, i32 256, i1 false, null, null, i32 0, metadata !420, i32 796} ; [ DW_TAG_subprogram ]
!869 = metadata !{i32 786453, i32 0, metadata !"", i32 0, i32 0, i64 0, i64 0, i64 0, i32 0, null, metadata !870, i32 0, i32 0} ; [ DW_TAG_subroutine_type ]
!870 = metadata !{null, metadata !823, metadata !505}
!871 = metadata !{i32 786478, i32 0, metadata !802, metadata !"ap_fixed_base", metadata !"ap_fixed_base", metadata !"", metadata !408, i32 797, metadata !872, i1 false, i1 false, i32 0, i32 0, null, i32 256, i1 false, null, null, i32 0, metadata !420, i32 797} ; [ DW_TAG_subprogram ]
!872 = metadata !{i32 786453, i32 0, metadata !"", i32 0, i32 0, i64 0, i64 0, i64 0, i32 0, null, metadata !873, i32 0, i32 0} ; [ DW_TAG_subroutine_type ]
!873 = metadata !{null, metadata !823, metadata !509}
!874 = metadata !{i32 786478, i32 0, metadata !802, metadata !"ap_fixed_base", metadata !"ap_fixed_base", metadata !"", metadata !408, i32 802, metadata !875, i1 false, i1 false, i32 0, i32 0, null, i32 256, i1 false, null, null, i32 0, metadata !420, i32 802} ; [ DW_TAG_subprogram ]
!875 = metadata !{i32 786453, i32 0, metadata !"", i32 0, i32 0, i64 0, i64 0, i64 0, i32 0, null, metadata !876, i32 0, i32 0} ; [ DW_TAG_subroutine_type ]
!876 = metadata !{null, metadata !823, metadata !513}
!877 = metadata !{i32 786478, i32 0, metadata !802, metadata !"ap_fixed_base", metadata !"ap_fixed_base", metadata !"", metadata !408, i32 803, metadata !878, i1 false, i1 false, i32 0, i32 0, null, i32 256, i1 false, null, null, i32 0, metadata !420, i32 803} ; [ DW_TAG_subprogram ]
!878 = metadata !{i32 786453, i32 0, metadata !"", i32 0, i32 0, i64 0, i64 0, i64 0, i32 0, null, metadata !879, i32 0, i32 0} ; [ DW_TAG_subroutine_type ]
!879 = metadata !{null, metadata !823, metadata !518}
!880 = metadata !{i32 786478, i32 0, metadata !802, metadata !"ap_fixed_base", metadata !"ap_fixed_base", metadata !"", metadata !408, i32 804, metadata !881, i1 false, i1 false, i32 0, i32 0, null, i32 256, i1 false, null, null, i32 0, metadata !420, i32 804} ; [ DW_TAG_subprogram ]
!881 = metadata !{i32 786453, i32 0, metadata !"", i32 0, i32 0, i64 0, i64 0, i64 0, i32 0, null, metadata !882, i32 0, i32 0} ; [ DW_TAG_subroutine_type ]
!882 = metadata !{null, metadata !823, metadata !523}
!883 = metadata !{i32 786478, i32 0, metadata !802, metadata !"ap_fixed_base", metadata !"ap_fixed_base", metadata !"", metadata !408, i32 811, metadata !884, i1 false, i1 false, i32 0, i32 0, null, i32 256, i1 false, null, null, i32 0, metadata !420, i32 811} ; [ DW_TAG_subprogram ]
!884 = metadata !{i32 786453, i32 0, metadata !"", i32 0, i32 0, i64 0, i64 0, i64 0, i32 0, null, metadata !885, i32 0, i32 0} ; [ DW_TAG_subroutine_type ]
!885 = metadata !{null, metadata !823, metadata !523, metadata !482}
!886 = metadata !{i32 786478, i32 0, metadata !802, metadata !"doubleToRawBits", metadata !"doubleToRawBits", metadata !"_ZNK13ap_fixed_baseILi14ELi4ELb1EL9ap_q_mode5EL9ap_o_mode3ELi0EE15doubleToRawBitsEd", metadata !408, i32 847, metadata !887, i1 false, i1 false, i32 0, i32 0, null, i32 256, i1 false, null, null, i32 0, metadata !420, i32 847} ; [ DW_TAG_subprogram ]
!887 = metadata !{i32 786453, i32 0, metadata !"", i32 0, i32 0, i64 0, i64 0, i64 0, i32 0, null, metadata !888, i32 0, i32 0} ; [ DW_TAG_subroutine_type ]
!888 = metadata !{metadata !519, metadata !889, metadata !532}
!889 = metadata !{i32 786447, i32 0, metadata !"", i32 0, i32 0, i64 64, i64 64, i64 0, i32 64, metadata !834} ; [ DW_TAG_pointer_type ]
!890 = metadata !{i32 786478, i32 0, metadata !802, metadata !"floatToRawBits", metadata !"floatToRawBits", metadata !"_ZNK13ap_fixed_baseILi14ELi4ELb1EL9ap_q_mode5EL9ap_o_mode3ELi0EE14floatToRawBitsEf", metadata !408, i32 855, metadata !891, i1 false, i1 false, i32 0, i32 0, null, i32 256, i1 false, null, null, i32 0, metadata !420, i32 855} ; [ DW_TAG_subprogram ]
!891 = metadata !{i32 786453, i32 0, metadata !"", i32 0, i32 0, i64 0, i64 0, i64 0, i32 0, null, metadata !892, i32 0, i32 0} ; [ DW_TAG_subroutine_type ]
!892 = metadata !{metadata !501, metadata !889, metadata !536}
!893 = metadata !{i32 786478, i32 0, metadata !802, metadata !"rawBitsToDouble", metadata !"rawBitsToDouble", metadata !"_ZNK13ap_fixed_baseILi14ELi4ELb1EL9ap_q_mode5EL9ap_o_mode3ELi0EE15rawBitsToDoubleEy", metadata !408, i32 864, metadata !894, i1 false, i1 false, i32 0, i32 0, null, i32 256, i1 false, null, null, i32 0, metadata !420, i32 864} ; [ DW_TAG_subprogram ]
!894 = metadata !{i32 786453, i32 0, metadata !"", i32 0, i32 0, i64 0, i64 0, i64 0, i32 0, null, metadata !895, i32 0, i32 0} ; [ DW_TAG_subroutine_type ]
!895 = metadata !{metadata !532, metadata !889, metadata !519}
!896 = metadata !{i32 786478, i32 0, metadata !802, metadata !"rawBitsToFloat", metadata !"rawBitsToFloat", metadata !"_ZNK13ap_fixed_baseILi14ELi4ELb1EL9ap_q_mode5EL9ap_o_mode3ELi0EE14rawBitsToFloatEj", metadata !408, i32 873, metadata !897, i1 false, i1 false, i32 0, i32 0, null, i32 256, i1 false, null, null, i32 0, metadata !420, i32 873} ; [ DW_TAG_subprogram ]
!897 = metadata !{i32 786453, i32 0, metadata !"", i32 0, i32 0, i64 0, i64 0, i64 0, i32 0, null, metadata !898, i32 0, i32 0} ; [ DW_TAG_subroutine_type ]
!898 = metadata !{metadata !536, metadata !889, metadata !501}
!899 = metadata !{i32 786478, i32 0, metadata !802, metadata !"ap_fixed_base", metadata !"ap_fixed_base", metadata !"", metadata !408, i32 882, metadata !900, i1 false, i1 false, i32 0, i32 0, null, i32 256, i1 false, null, null, i32 0, metadata !420, i32 882} ; [ DW_TAG_subprogram ]
!900 = metadata !{i32 786453, i32 0, metadata !"", i32 0, i32 0, i64 0, i64 0, i64 0, i32 0, null, metadata !901, i32 0, i32 0} ; [ DW_TAG_subroutine_type ]
!901 = metadata !{null, metadata !823, metadata !532}
!902 = metadata !{i32 786478, i32 0, metadata !802, metadata !"operator=", metadata !"operator=", metadata !"_ZN13ap_fixed_baseILi14ELi4ELb1EL9ap_q_mode5EL9ap_o_mode3ELi0EEaSERKS2_", metadata !408, i32 995, metadata !903, i1 false, i1 false, i32 0, i32 0, null, i32 256, i1 false, null, null, i32 0, metadata !420, i32 995} ; [ DW_TAG_subprogram ]
!903 = metadata !{i32 786453, i32 0, metadata !"", i32 0, i32 0, i64 0, i64 0, i64 0, i32 0, null, metadata !904, i32 0, i32 0} ; [ DW_TAG_subroutine_type ]
!904 = metadata !{metadata !905, metadata !823, metadata !833}
!905 = metadata !{i32 786448, null, null, null, i32 0, i64 0, i64 0, i64 0, i32 0, metadata !802} ; [ DW_TAG_reference_type ]
!906 = metadata !{i32 786478, i32 0, metadata !802, metadata !"operator=", metadata !"operator=", metadata !"_ZN13ap_fixed_baseILi14ELi4ELb1EL9ap_q_mode5EL9ap_o_mode3ELi0EEaSERVKS2_", metadata !408, i32 1002, metadata !907, i1 false, i1 false, i32 0, i32 0, null, i32 256, i1 false, null, null, i32 0, metadata !420, i32 1002} ; [ DW_TAG_subprogram ]
!907 = metadata !{i32 786453, i32 0, metadata !"", i32 0, i32 0, i64 0, i64 0, i64 0, i32 0, null, metadata !908, i32 0, i32 0} ; [ DW_TAG_subroutine_type ]
!908 = metadata !{metadata !905, metadata !823, metadata !841}
!909 = metadata !{i32 786478, i32 0, metadata !802, metadata !"operator=", metadata !"operator=", metadata !"_ZNV13ap_fixed_baseILi14ELi4ELb1EL9ap_q_mode5EL9ap_o_mode3ELi0EEaSERKS2_", metadata !408, i32 1009, metadata !910, i1 false, i1 false, i32 0, i32 0, null, i32 256, i1 false, null, null, i32 0, metadata !420, i32 1009} ; [ DW_TAG_subprogram ]
!910 = metadata !{i32 786453, i32 0, metadata !"", i32 0, i32 0, i64 0, i64 0, i64 0, i32 0, null, metadata !911, i32 0, i32 0} ; [ DW_TAG_subroutine_type ]
!911 = metadata !{null, metadata !912, metadata !833}
!912 = metadata !{i32 786447, i32 0, metadata !"", i32 0, i32 0, i64 64, i64 64, i64 0, i32 64, metadata !843} ; [ DW_TAG_pointer_type ]
!913 = metadata !{i32 786478, i32 0, metadata !802, metadata !"operator=", metadata !"operator=", metadata !"_ZNV13ap_fixed_baseILi14ELi4ELb1EL9ap_q_mode5EL9ap_o_mode3ELi0EEaSERVKS2_", metadata !408, i32 1015, metadata !914, i1 false, i1 false, i32 0, i32 0, null, i32 256, i1 false, null, null, i32 0, metadata !420, i32 1015} ; [ DW_TAG_subprogram ]
!914 = metadata !{i32 786453, i32 0, metadata !"", i32 0, i32 0, i64 0, i64 0, i64 0, i32 0, null, metadata !915, i32 0, i32 0} ; [ DW_TAG_subroutine_type ]
!915 = metadata !{null, metadata !912, metadata !841}
!916 = metadata !{i32 786478, i32 0, metadata !802, metadata !"setBits", metadata !"setBits", metadata !"_ZN13ap_fixed_baseILi14ELi4ELb1EL9ap_q_mode5EL9ap_o_mode3ELi0EE7setBitsEy", metadata !408, i32 1024, metadata !917, i1 false, i1 false, i32 0, i32 0, null, i32 256, i1 false, null, null, i32 0, metadata !420, i32 1024} ; [ DW_TAG_subprogram ]
!917 = metadata !{i32 786453, i32 0, metadata !"", i32 0, i32 0, i64 0, i64 0, i64 0, i32 0, null, metadata !918, i32 0, i32 0} ; [ DW_TAG_subroutine_type ]
!918 = metadata !{metadata !905, metadata !823, metadata !519}
!919 = metadata !{i32 786478, i32 0, metadata !802, metadata !"bitsToFixed", metadata !"bitsToFixed", metadata !"_ZN13ap_fixed_baseILi14ELi4ELb1EL9ap_q_mode5EL9ap_o_mode3ELi0EE11bitsToFixedEy", metadata !408, i32 1030, metadata !920, i1 false, i1 false, i32 0, i32 0, null, i32 256, i1 false, null, null, i32 0, metadata !420, i32 1030} ; [ DW_TAG_subprogram ]
!920 = metadata !{i32 786453, i32 0, metadata !"", i32 0, i32 0, i64 0, i64 0, i64 0, i32 0, null, metadata !921, i32 0, i32 0} ; [ DW_TAG_subroutine_type ]
!921 = metadata !{metadata !802, metadata !519}
!922 = metadata !{i32 786478, i32 0, metadata !802, metadata !"to_ap_int_base", metadata !"to_ap_int_base", metadata !"_ZNK13ap_fixed_baseILi14ELi4ELb1EL9ap_q_mode5EL9ap_o_mode3ELi0EE14to_ap_int_baseEb", metadata !408, i32 1039, metadata !923, i1 false, i1 false, i32 0, i32 0, null, i32 256, i1 false, null, null, i32 0, metadata !420, i32 1039} ; [ DW_TAG_subprogram ]
!923 = metadata !{i32 786453, i32 0, metadata !"", i32 0, i32 0, i64 0, i64 0, i64 0, i32 0, null, metadata !924, i32 0, i32 0} ; [ DW_TAG_subroutine_type ]
!924 = metadata !{metadata !925, metadata !889, metadata !426}
!925 = metadata !{i32 786434, null, metadata !"ap_int_base<4, true, true>", metadata !448, i32 1397, i64 8, i64 8, i32 0, i32 0, null, metadata !926, i32 0, null, metadata !4241} ; [ DW_TAG_class_type ]
!926 = metadata !{metadata !927, metadata !938, metadata !942, metadata !945, metadata !948, metadata !951, metadata !954, metadata !957, metadata !960, metadata !963, metadata !966, metadata !969, metadata !972, metadata !975, metadata !978, metadata !981, metadata !984, metadata !987, metadata !992, metadata !997, metadata !1002, metadata !1003, metadata !1007, metadata !1010, metadata !1013, metadata !1016, metadata !1019, metadata !1022, metadata !1025, metadata !1028, metadata !1031, metadata !1034, metadata !1037, metadata !1040, metadata !1050, metadata !1053, metadata !1056, metadata !1059, metadata !1062, metadata !1065, metadata !1068, metadata !1071, metadata !1074, metadata !1077, metadata !1080, metadata !1083, metadata !1086, metadata !1087, metadata !1091, metadata !1094, metadata !1095, metadata !1096, metadata !1097, metadata !1098, metadata !1099, metadata !1102, metadata !1103, metadata !1106, metadata !1107, metadata !1108, metadata !1109, metadata !1110, metadata !1111, metadata !1114, metadata !1115, metadata !1116, metadata !1119, metadata !1120, metadata !1123, metadata !1124, metadata !1127, metadata !2454, metadata !4201, metadata !4202, metadata !4206, metadata !4207, metadata !4210, metadata !4211, metadata !4215, metadata !4216, metadata !4217, metadata !4218, metadata !4221, metadata !4222, metadata !4223, metadata !4224, metadata !4225, metadata !4226, metadata !4227, metadata !4228, metadata !4229, metadata !4230, metadata !4231, metadata !4232, metadata !4235, metadata !4238}
!927 = metadata !{i32 786460, metadata !925, null, metadata !448, i32 0, i64 0, i64 0, i64 0, i32 0, metadata !928} ; [ DW_TAG_inheritance ]
!928 = metadata !{i32 786434, null, metadata !"ssdm_int<4 + 1024 * 0, true>", metadata !412, i32 6, i64 8, i64 8, i32 0, i32 0, null, metadata !929, i32 0, null, metadata !936} ; [ DW_TAG_class_type ]
!929 = metadata !{metadata !930, metadata !932}
!930 = metadata !{i32 786445, metadata !928, metadata !"V", metadata !412, i32 6, i64 4, i64 4, i64 0, i32 0, metadata !931} ; [ DW_TAG_member ]
!931 = metadata !{i32 786468, null, metadata !"int4", null, i32 0, i64 4, i64 4, i64 0, i32 0, i32 5} ; [ DW_TAG_base_type ]
!932 = metadata !{i32 786478, i32 0, metadata !928, metadata !"ssdm_int", metadata !"ssdm_int", metadata !"", metadata !412, i32 6, metadata !933, i1 false, i1 false, i32 0, i32 0, null, i32 256, i1 false, null, null, i32 0, metadata !420, i32 6} ; [ DW_TAG_subprogram ]
!933 = metadata !{i32 786453, i32 0, metadata !"", i32 0, i32 0, i64 0, i64 0, i64 0, i32 0, null, metadata !934, i32 0, i32 0} ; [ DW_TAG_subroutine_type ]
!934 = metadata !{null, metadata !935}
!935 = metadata !{i32 786447, i32 0, metadata !"", i32 0, i32 0, i64 64, i64 64, i64 0, i32 64, metadata !928} ; [ DW_TAG_pointer_type ]
!936 = metadata !{metadata !937, metadata !425}
!937 = metadata !{i32 786480, null, metadata !"_AP_N", metadata !424, i64 4, null, i32 0, i32 0} ; [ DW_TAG_template_value_parameter ]
!938 = metadata !{i32 786478, i32 0, metadata !925, metadata !"ap_int_base", metadata !"ap_int_base", metadata !"", metadata !448, i32 1438, metadata !939, i1 false, i1 false, i32 0, i32 0, null, i32 256, i1 false, null, null, i32 0, metadata !420, i32 1438} ; [ DW_TAG_subprogram ]
!939 = metadata !{i32 786453, i32 0, metadata !"", i32 0, i32 0, i64 0, i64 0, i64 0, i32 0, null, metadata !940, i32 0, i32 0} ; [ DW_TAG_subroutine_type ]
!940 = metadata !{null, metadata !941}
!941 = metadata !{i32 786447, i32 0, metadata !"", i32 0, i32 0, i64 64, i64 64, i64 0, i32 64, metadata !925} ; [ DW_TAG_pointer_type ]
!942 = metadata !{i32 786478, i32 0, metadata !925, metadata !"ap_int_base", metadata !"ap_int_base", metadata !"", metadata !448, i32 1460, metadata !943, i1 false, i1 false, i32 0, i32 0, null, i32 384, i1 false, null, null, i32 0, metadata !420, i32 1460} ; [ DW_TAG_subprogram ]
!943 = metadata !{i32 786453, i32 0, metadata !"", i32 0, i32 0, i64 0, i64 0, i64 0, i32 0, null, metadata !944, i32 0, i32 0} ; [ DW_TAG_subroutine_type ]
!944 = metadata !{null, metadata !941, metadata !426}
!945 = metadata !{i32 786478, i32 0, metadata !925, metadata !"ap_int_base", metadata !"ap_int_base", metadata !"", metadata !448, i32 1461, metadata !946, i1 false, i1 false, i32 0, i32 0, null, i32 384, i1 false, null, null, i32 0, metadata !420, i32 1461} ; [ DW_TAG_subprogram ]
!946 = metadata !{i32 786453, i32 0, metadata !"", i32 0, i32 0, i64 0, i64 0, i64 0, i32 0, null, metadata !947, i32 0, i32 0} ; [ DW_TAG_subroutine_type ]
!947 = metadata !{null, metadata !941, metadata !482}
!948 = metadata !{i32 786478, i32 0, metadata !925, metadata !"ap_int_base", metadata !"ap_int_base", metadata !"", metadata !448, i32 1462, metadata !949, i1 false, i1 false, i32 0, i32 0, null, i32 384, i1 false, null, null, i32 0, metadata !420, i32 1462} ; [ DW_TAG_subprogram ]
!949 = metadata !{i32 786453, i32 0, metadata !"", i32 0, i32 0, i64 0, i64 0, i64 0, i32 0, null, metadata !950, i32 0, i32 0} ; [ DW_TAG_subroutine_type ]
!950 = metadata !{null, metadata !941, metadata !486}
!951 = metadata !{i32 786478, i32 0, metadata !925, metadata !"ap_int_base", metadata !"ap_int_base", metadata !"", metadata !448, i32 1463, metadata !952, i1 false, i1 false, i32 0, i32 0, null, i32 384, i1 false, null, null, i32 0, metadata !420, i32 1463} ; [ DW_TAG_subprogram ]
!952 = metadata !{i32 786453, i32 0, metadata !"", i32 0, i32 0, i64 0, i64 0, i64 0, i32 0, null, metadata !953, i32 0, i32 0} ; [ DW_TAG_subroutine_type ]
!953 = metadata !{null, metadata !941, metadata !490}
!954 = metadata !{i32 786478, i32 0, metadata !925, metadata !"ap_int_base", metadata !"ap_int_base", metadata !"", metadata !448, i32 1464, metadata !955, i1 false, i1 false, i32 0, i32 0, null, i32 384, i1 false, null, null, i32 0, metadata !420, i32 1464} ; [ DW_TAG_subprogram ]
!955 = metadata !{i32 786453, i32 0, metadata !"", i32 0, i32 0, i64 0, i64 0, i64 0, i32 0, null, metadata !956, i32 0, i32 0} ; [ DW_TAG_subroutine_type ]
!956 = metadata !{null, metadata !941, metadata !494}
!957 = metadata !{i32 786478, i32 0, metadata !925, metadata !"ap_int_base", metadata !"ap_int_base", metadata !"", metadata !448, i32 1465, metadata !958, i1 false, i1 false, i32 0, i32 0, null, i32 384, i1 false, null, null, i32 0, metadata !420, i32 1465} ; [ DW_TAG_subprogram ]
!958 = metadata !{i32 786453, i32 0, metadata !"", i32 0, i32 0, i64 0, i64 0, i64 0, i32 0, null, metadata !959, i32 0, i32 0} ; [ DW_TAG_subroutine_type ]
!959 = metadata !{null, metadata !941, metadata !424}
!960 = metadata !{i32 786478, i32 0, metadata !925, metadata !"ap_int_base", metadata !"ap_int_base", metadata !"", metadata !448, i32 1466, metadata !961, i1 false, i1 false, i32 0, i32 0, null, i32 384, i1 false, null, null, i32 0, metadata !420, i32 1466} ; [ DW_TAG_subprogram ]
!961 = metadata !{i32 786453, i32 0, metadata !"", i32 0, i32 0, i64 0, i64 0, i64 0, i32 0, null, metadata !962, i32 0, i32 0} ; [ DW_TAG_subroutine_type ]
!962 = metadata !{null, metadata !941, metadata !501}
!963 = metadata !{i32 786478, i32 0, metadata !925, metadata !"ap_int_base", metadata !"ap_int_base", metadata !"", metadata !448, i32 1467, metadata !964, i1 false, i1 false, i32 0, i32 0, null, i32 384, i1 false, null, null, i32 0, metadata !420, i32 1467} ; [ DW_TAG_subprogram ]
!964 = metadata !{i32 786453, i32 0, metadata !"", i32 0, i32 0, i64 0, i64 0, i64 0, i32 0, null, metadata !965, i32 0, i32 0} ; [ DW_TAG_subroutine_type ]
!965 = metadata !{null, metadata !941, metadata !505}
!966 = metadata !{i32 786478, i32 0, metadata !925, metadata !"ap_int_base", metadata !"ap_int_base", metadata !"", metadata !448, i32 1468, metadata !967, i1 false, i1 false, i32 0, i32 0, null, i32 384, i1 false, null, null, i32 0, metadata !420, i32 1468} ; [ DW_TAG_subprogram ]
!967 = metadata !{i32 786453, i32 0, metadata !"", i32 0, i32 0, i64 0, i64 0, i64 0, i32 0, null, metadata !968, i32 0, i32 0} ; [ DW_TAG_subroutine_type ]
!968 = metadata !{null, metadata !941, metadata !509}
!969 = metadata !{i32 786478, i32 0, metadata !925, metadata !"ap_int_base", metadata !"ap_int_base", metadata !"", metadata !448, i32 1469, metadata !970, i1 false, i1 false, i32 0, i32 0, null, i32 384, i1 false, null, null, i32 0, metadata !420, i32 1469} ; [ DW_TAG_subprogram ]
!970 = metadata !{i32 786453, i32 0, metadata !"", i32 0, i32 0, i64 0, i64 0, i64 0, i32 0, null, metadata !971, i32 0, i32 0} ; [ DW_TAG_subroutine_type ]
!971 = metadata !{null, metadata !941, metadata !513}
!972 = metadata !{i32 786478, i32 0, metadata !925, metadata !"ap_int_base", metadata !"ap_int_base", metadata !"", metadata !448, i32 1470, metadata !973, i1 false, i1 false, i32 0, i32 0, null, i32 384, i1 false, null, null, i32 0, metadata !420, i32 1470} ; [ DW_TAG_subprogram ]
!973 = metadata !{i32 786453, i32 0, metadata !"", i32 0, i32 0, i64 0, i64 0, i64 0, i32 0, null, metadata !974, i32 0, i32 0} ; [ DW_TAG_subroutine_type ]
!974 = metadata !{null, metadata !941, metadata !518}
!975 = metadata !{i32 786478, i32 0, metadata !925, metadata !"ap_int_base", metadata !"ap_int_base", metadata !"", metadata !448, i32 1471, metadata !976, i1 false, i1 false, i32 0, i32 0, null, i32 384, i1 false, null, null, i32 0, metadata !420, i32 1471} ; [ DW_TAG_subprogram ]
!976 = metadata !{i32 786453, i32 0, metadata !"", i32 0, i32 0, i64 0, i64 0, i64 0, i32 0, null, metadata !977, i32 0, i32 0} ; [ DW_TAG_subroutine_type ]
!977 = metadata !{null, metadata !941, metadata !536}
!978 = metadata !{i32 786478, i32 0, metadata !925, metadata !"ap_int_base", metadata !"ap_int_base", metadata !"", metadata !448, i32 1472, metadata !979, i1 false, i1 false, i32 0, i32 0, null, i32 384, i1 false, null, null, i32 0, metadata !420, i32 1472} ; [ DW_TAG_subprogram ]
!979 = metadata !{i32 786453, i32 0, metadata !"", i32 0, i32 0, i64 0, i64 0, i64 0, i32 0, null, metadata !980, i32 0, i32 0} ; [ DW_TAG_subroutine_type ]
!980 = metadata !{null, metadata !941, metadata !532}
!981 = metadata !{i32 786478, i32 0, metadata !925, metadata !"ap_int_base", metadata !"ap_int_base", metadata !"", metadata !448, i32 1499, metadata !982, i1 false, i1 false, i32 0, i32 0, null, i32 256, i1 false, null, null, i32 0, metadata !420, i32 1499} ; [ DW_TAG_subprogram ]
!982 = metadata !{i32 786453, i32 0, metadata !"", i32 0, i32 0, i64 0, i64 0, i64 0, i32 0, null, metadata !983, i32 0, i32 0} ; [ DW_TAG_subroutine_type ]
!983 = metadata !{null, metadata !941, metadata !523}
!984 = metadata !{i32 786478, i32 0, metadata !925, metadata !"ap_int_base", metadata !"ap_int_base", metadata !"", metadata !448, i32 1506, metadata !985, i1 false, i1 false, i32 0, i32 0, null, i32 256, i1 false, null, null, i32 0, metadata !420, i32 1506} ; [ DW_TAG_subprogram ]
!985 = metadata !{i32 786453, i32 0, metadata !"", i32 0, i32 0, i64 0, i64 0, i64 0, i32 0, null, metadata !986, i32 0, i32 0} ; [ DW_TAG_subroutine_type ]
!986 = metadata !{null, metadata !941, metadata !523, metadata !482}
!987 = metadata !{i32 786478, i32 0, metadata !925, metadata !"read", metadata !"read", metadata !"_ZNV11ap_int_baseILi4ELb1ELb1EE4readEv", metadata !448, i32 1527, metadata !988, i1 false, i1 false, i32 0, i32 0, null, i32 256, i1 false, null, null, i32 0, metadata !420, i32 1527} ; [ DW_TAG_subprogram ]
!988 = metadata !{i32 786453, i32 0, metadata !"", i32 0, i32 0, i64 0, i64 0, i64 0, i32 0, null, metadata !989, i32 0, i32 0} ; [ DW_TAG_subroutine_type ]
!989 = metadata !{metadata !925, metadata !990}
!990 = metadata !{i32 786447, i32 0, metadata !"", i32 0, i32 0, i64 64, i64 64, i64 0, i32 64, metadata !991} ; [ DW_TAG_pointer_type ]
!991 = metadata !{i32 786485, null, metadata !"", null, i32 0, i64 0, i64 0, i64 0, i32 0, metadata !925} ; [ DW_TAG_volatile_type ]
!992 = metadata !{i32 786478, i32 0, metadata !925, metadata !"write", metadata !"write", metadata !"_ZNV11ap_int_baseILi4ELb1ELb1EE5writeERKS0_", metadata !448, i32 1533, metadata !993, i1 false, i1 false, i32 0, i32 0, null, i32 256, i1 false, null, null, i32 0, metadata !420, i32 1533} ; [ DW_TAG_subprogram ]
!993 = metadata !{i32 786453, i32 0, metadata !"", i32 0, i32 0, i64 0, i64 0, i64 0, i32 0, null, metadata !994, i32 0, i32 0} ; [ DW_TAG_subroutine_type ]
!994 = metadata !{null, metadata !990, metadata !995}
!995 = metadata !{i32 786448, null, null, null, i32 0, i64 0, i64 0, i64 0, i32 0, metadata !996} ; [ DW_TAG_reference_type ]
!996 = metadata !{i32 786470, null, metadata !"", null, i32 0, i64 0, i64 0, i64 0, i32 0, metadata !925} ; [ DW_TAG_const_type ]
!997 = metadata !{i32 786478, i32 0, metadata !925, metadata !"operator=", metadata !"operator=", metadata !"_ZNV11ap_int_baseILi4ELb1ELb1EEaSERVKS0_", metadata !448, i32 1545, metadata !998, i1 false, i1 false, i32 0, i32 0, null, i32 256, i1 false, null, null, i32 0, metadata !420, i32 1545} ; [ DW_TAG_subprogram ]
!998 = metadata !{i32 786453, i32 0, metadata !"", i32 0, i32 0, i64 0, i64 0, i64 0, i32 0, null, metadata !999, i32 0, i32 0} ; [ DW_TAG_subroutine_type ]
!999 = metadata !{null, metadata !990, metadata !1000}
!1000 = metadata !{i32 786448, null, null, null, i32 0, i64 0, i64 0, i64 0, i32 0, metadata !1001} ; [ DW_TAG_reference_type ]
!1001 = metadata !{i32 786470, null, metadata !"", null, i32 0, i64 0, i64 0, i64 0, i32 0, metadata !991} ; [ DW_TAG_const_type ]
!1002 = metadata !{i32 786478, i32 0, metadata !925, metadata !"operator=", metadata !"operator=", metadata !"_ZNV11ap_int_baseILi4ELb1ELb1EEaSERKS0_", metadata !448, i32 1554, metadata !993, i1 false, i1 false, i32 0, i32 0, null, i32 256, i1 false, null, null, i32 0, metadata !420, i32 1554} ; [ DW_TAG_subprogram ]
!1003 = metadata !{i32 786478, i32 0, metadata !925, metadata !"operator=", metadata !"operator=", metadata !"_ZN11ap_int_baseILi4ELb1ELb1EEaSERVKS0_", metadata !448, i32 1577, metadata !1004, i1 false, i1 false, i32 0, i32 0, null, i32 256, i1 false, null, null, i32 0, metadata !420, i32 1577} ; [ DW_TAG_subprogram ]
!1004 = metadata !{i32 786453, i32 0, metadata !"", i32 0, i32 0, i64 0, i64 0, i64 0, i32 0, null, metadata !1005, i32 0, i32 0} ; [ DW_TAG_subroutine_type ]
!1005 = metadata !{metadata !1006, metadata !941, metadata !1000}
!1006 = metadata !{i32 786448, null, null, null, i32 0, i64 0, i64 0, i64 0, i32 0, metadata !925} ; [ DW_TAG_reference_type ]
!1007 = metadata !{i32 786478, i32 0, metadata !925, metadata !"operator=", metadata !"operator=", metadata !"_ZN11ap_int_baseILi4ELb1ELb1EEaSERKS0_", metadata !448, i32 1582, metadata !1008, i1 false, i1 false, i32 0, i32 0, null, i32 256, i1 false, null, null, i32 0, metadata !420, i32 1582} ; [ DW_TAG_subprogram ]
!1008 = metadata !{i32 786453, i32 0, metadata !"", i32 0, i32 0, i64 0, i64 0, i64 0, i32 0, null, metadata !1009, i32 0, i32 0} ; [ DW_TAG_subroutine_type ]
!1009 = metadata !{metadata !1006, metadata !941, metadata !995}
!1010 = metadata !{i32 786478, i32 0, metadata !925, metadata !"operator=", metadata !"operator=", metadata !"_ZN11ap_int_baseILi4ELb1ELb1EEaSEPKc", metadata !448, i32 1586, metadata !1011, i1 false, i1 false, i32 0, i32 0, null, i32 256, i1 false, null, null, i32 0, metadata !420, i32 1586} ; [ DW_TAG_subprogram ]
!1011 = metadata !{i32 786453, i32 0, metadata !"", i32 0, i32 0, i64 0, i64 0, i64 0, i32 0, null, metadata !1012, i32 0, i32 0} ; [ DW_TAG_subroutine_type ]
!1012 = metadata !{metadata !1006, metadata !941, metadata !523}
!1013 = metadata !{i32 786478, i32 0, metadata !925, metadata !"set", metadata !"set", metadata !"_ZN11ap_int_baseILi4ELb1ELb1EE3setEPKca", metadata !448, i32 1594, metadata !1014, i1 false, i1 false, i32 0, i32 0, null, i32 256, i1 false, null, null, i32 0, metadata !420, i32 1594} ; [ DW_TAG_subprogram ]
!1014 = metadata !{i32 786453, i32 0, metadata !"", i32 0, i32 0, i64 0, i64 0, i64 0, i32 0, null, metadata !1015, i32 0, i32 0} ; [ DW_TAG_subroutine_type ]
!1015 = metadata !{metadata !1006, metadata !941, metadata !523, metadata !482}
!1016 = metadata !{i32 786478, i32 0, metadata !925, metadata !"operator=", metadata !"operator=", metadata !"_ZN11ap_int_baseILi4ELb1ELb1EEaSEa", metadata !448, i32 1608, metadata !1017, i1 false, i1 false, i32 0, i32 0, null, i32 256, i1 false, null, null, i32 0, metadata !420, i32 1608} ; [ DW_TAG_subprogram ]
!1017 = metadata !{i32 786453, i32 0, metadata !"", i32 0, i32 0, i64 0, i64 0, i64 0, i32 0, null, metadata !1018, i32 0, i32 0} ; [ DW_TAG_subroutine_type ]
!1018 = metadata !{metadata !1006, metadata !941, metadata !482}
!1019 = metadata !{i32 786478, i32 0, metadata !925, metadata !"operator=", metadata !"operator=", metadata !"_ZN11ap_int_baseILi4ELb1ELb1EEaSEh", metadata !448, i32 1609, metadata !1020, i1 false, i1 false, i32 0, i32 0, null, i32 256, i1 false, null, null, i32 0, metadata !420, i32 1609} ; [ DW_TAG_subprogram ]
!1020 = metadata !{i32 786453, i32 0, metadata !"", i32 0, i32 0, i64 0, i64 0, i64 0, i32 0, null, metadata !1021, i32 0, i32 0} ; [ DW_TAG_subroutine_type ]
!1021 = metadata !{metadata !1006, metadata !941, metadata !486}
!1022 = metadata !{i32 786478, i32 0, metadata !925, metadata !"operator=", metadata !"operator=", metadata !"_ZN11ap_int_baseILi4ELb1ELb1EEaSEs", metadata !448, i32 1610, metadata !1023, i1 false, i1 false, i32 0, i32 0, null, i32 256, i1 false, null, null, i32 0, metadata !420, i32 1610} ; [ DW_TAG_subprogram ]
!1023 = metadata !{i32 786453, i32 0, metadata !"", i32 0, i32 0, i64 0, i64 0, i64 0, i32 0, null, metadata !1024, i32 0, i32 0} ; [ DW_TAG_subroutine_type ]
!1024 = metadata !{metadata !1006, metadata !941, metadata !490}
!1025 = metadata !{i32 786478, i32 0, metadata !925, metadata !"operator=", metadata !"operator=", metadata !"_ZN11ap_int_baseILi4ELb1ELb1EEaSEt", metadata !448, i32 1611, metadata !1026, i1 false, i1 false, i32 0, i32 0, null, i32 256, i1 false, null, null, i32 0, metadata !420, i32 1611} ; [ DW_TAG_subprogram ]
!1026 = metadata !{i32 786453, i32 0, metadata !"", i32 0, i32 0, i64 0, i64 0, i64 0, i32 0, null, metadata !1027, i32 0, i32 0} ; [ DW_TAG_subroutine_type ]
!1027 = metadata !{metadata !1006, metadata !941, metadata !494}
!1028 = metadata !{i32 786478, i32 0, metadata !925, metadata !"operator=", metadata !"operator=", metadata !"_ZN11ap_int_baseILi4ELb1ELb1EEaSEi", metadata !448, i32 1612, metadata !1029, i1 false, i1 false, i32 0, i32 0, null, i32 256, i1 false, null, null, i32 0, metadata !420, i32 1612} ; [ DW_TAG_subprogram ]
!1029 = metadata !{i32 786453, i32 0, metadata !"", i32 0, i32 0, i64 0, i64 0, i64 0, i32 0, null, metadata !1030, i32 0, i32 0} ; [ DW_TAG_subroutine_type ]
!1030 = metadata !{metadata !1006, metadata !941, metadata !424}
!1031 = metadata !{i32 786478, i32 0, metadata !925, metadata !"operator=", metadata !"operator=", metadata !"_ZN11ap_int_baseILi4ELb1ELb1EEaSEj", metadata !448, i32 1613, metadata !1032, i1 false, i1 false, i32 0, i32 0, null, i32 256, i1 false, null, null, i32 0, metadata !420, i32 1613} ; [ DW_TAG_subprogram ]
!1032 = metadata !{i32 786453, i32 0, metadata !"", i32 0, i32 0, i64 0, i64 0, i64 0, i32 0, null, metadata !1033, i32 0, i32 0} ; [ DW_TAG_subroutine_type ]
!1033 = metadata !{metadata !1006, metadata !941, metadata !501}
!1034 = metadata !{i32 786478, i32 0, metadata !925, metadata !"operator=", metadata !"operator=", metadata !"_ZN11ap_int_baseILi4ELb1ELb1EEaSEx", metadata !448, i32 1614, metadata !1035, i1 false, i1 false, i32 0, i32 0, null, i32 256, i1 false, null, null, i32 0, metadata !420, i32 1614} ; [ DW_TAG_subprogram ]
!1035 = metadata !{i32 786453, i32 0, metadata !"", i32 0, i32 0, i64 0, i64 0, i64 0, i32 0, null, metadata !1036, i32 0, i32 0} ; [ DW_TAG_subroutine_type ]
!1036 = metadata !{metadata !1006, metadata !941, metadata !513}
!1037 = metadata !{i32 786478, i32 0, metadata !925, metadata !"operator=", metadata !"operator=", metadata !"_ZN11ap_int_baseILi4ELb1ELb1EEaSEy", metadata !448, i32 1615, metadata !1038, i1 false, i1 false, i32 0, i32 0, null, i32 256, i1 false, null, null, i32 0, metadata !420, i32 1615} ; [ DW_TAG_subprogram ]
!1038 = metadata !{i32 786453, i32 0, metadata !"", i32 0, i32 0, i64 0, i64 0, i64 0, i32 0, null, metadata !1039, i32 0, i32 0} ; [ DW_TAG_subroutine_type ]
!1039 = metadata !{metadata !1006, metadata !941, metadata !518}
!1040 = metadata !{i32 786478, i32 0, metadata !925, metadata !"operator signed char", metadata !"operator signed char", metadata !"_ZNK11ap_int_baseILi4ELb1ELb1EEcvaEv", metadata !448, i32 1653, metadata !1041, i1 false, i1 false, i32 0, i32 0, null, i32 256, i1 false, null, null, i32 0, metadata !420, i32 1653} ; [ DW_TAG_subprogram ]
!1041 = metadata !{i32 786453, i32 0, metadata !"", i32 0, i32 0, i64 0, i64 0, i64 0, i32 0, null, metadata !1042, i32 0, i32 0} ; [ DW_TAG_subroutine_type ]
!1042 = metadata !{metadata !1043, metadata !1049}
!1043 = metadata !{i32 786454, metadata !925, metadata !"RetType", metadata !448, i32 1402, i64 0, i64 0, i64 0, i32 0, metadata !1044} ; [ DW_TAG_typedef ]
!1044 = metadata !{i32 786454, metadata !1045, metadata !"Type", metadata !448, i32 1367, i64 0, i64 0, i64 0, i32 0, metadata !482} ; [ DW_TAG_typedef ]
!1045 = metadata !{i32 786434, null, metadata !"retval<1, true>", metadata !448, i32 1366, i64 8, i64 8, i32 0, i32 0, null, metadata !1046, i32 0, null, metadata !1047} ; [ DW_TAG_class_type ]
!1046 = metadata !{i32 0}
!1047 = metadata !{metadata !1048, metadata !425}
!1048 = metadata !{i32 786480, null, metadata !"_AP_N", metadata !424, i64 1, null, i32 0, i32 0} ; [ DW_TAG_template_value_parameter ]
!1049 = metadata !{i32 786447, i32 0, metadata !"", i32 0, i32 0, i64 64, i64 64, i64 0, i32 64, metadata !996} ; [ DW_TAG_pointer_type ]
!1050 = metadata !{i32 786478, i32 0, metadata !925, metadata !"to_bool", metadata !"to_bool", metadata !"_ZNK11ap_int_baseILi4ELb1ELb1EE7to_boolEv", metadata !448, i32 1659, metadata !1051, i1 false, i1 false, i32 0, i32 0, null, i32 256, i1 false, null, null, i32 0, metadata !420, i32 1659} ; [ DW_TAG_subprogram ]
!1051 = metadata !{i32 786453, i32 0, metadata !"", i32 0, i32 0, i64 0, i64 0, i64 0, i32 0, null, metadata !1052, i32 0, i32 0} ; [ DW_TAG_subroutine_type ]
!1052 = metadata !{metadata !426, metadata !1049}
!1053 = metadata !{i32 786478, i32 0, metadata !925, metadata !"to_uchar", metadata !"to_uchar", metadata !"_ZNK11ap_int_baseILi4ELb1ELb1EE8to_ucharEv", metadata !448, i32 1660, metadata !1054, i1 false, i1 false, i32 0, i32 0, null, i32 256, i1 false, null, null, i32 0, metadata !420, i32 1660} ; [ DW_TAG_subprogram ]
!1054 = metadata !{i32 786453, i32 0, metadata !"", i32 0, i32 0, i64 0, i64 0, i64 0, i32 0, null, metadata !1055, i32 0, i32 0} ; [ DW_TAG_subroutine_type ]
!1055 = metadata !{metadata !486, metadata !1049}
!1056 = metadata !{i32 786478, i32 0, metadata !925, metadata !"to_char", metadata !"to_char", metadata !"_ZNK11ap_int_baseILi4ELb1ELb1EE7to_charEv", metadata !448, i32 1661, metadata !1057, i1 false, i1 false, i32 0, i32 0, null, i32 256, i1 false, null, null, i32 0, metadata !420, i32 1661} ; [ DW_TAG_subprogram ]
!1057 = metadata !{i32 786453, i32 0, metadata !"", i32 0, i32 0, i64 0, i64 0, i64 0, i32 0, null, metadata !1058, i32 0, i32 0} ; [ DW_TAG_subroutine_type ]
!1058 = metadata !{metadata !482, metadata !1049}
!1059 = metadata !{i32 786478, i32 0, metadata !925, metadata !"to_ushort", metadata !"to_ushort", metadata !"_ZNK11ap_int_baseILi4ELb1ELb1EE9to_ushortEv", metadata !448, i32 1662, metadata !1060, i1 false, i1 false, i32 0, i32 0, null, i32 256, i1 false, null, null, i32 0, metadata !420, i32 1662} ; [ DW_TAG_subprogram ]
!1060 = metadata !{i32 786453, i32 0, metadata !"", i32 0, i32 0, i64 0, i64 0, i64 0, i32 0, null, metadata !1061, i32 0, i32 0} ; [ DW_TAG_subroutine_type ]
!1061 = metadata !{metadata !494, metadata !1049}
!1062 = metadata !{i32 786478, i32 0, metadata !925, metadata !"to_short", metadata !"to_short", metadata !"_ZNK11ap_int_baseILi4ELb1ELb1EE8to_shortEv", metadata !448, i32 1663, metadata !1063, i1 false, i1 false, i32 0, i32 0, null, i32 256, i1 false, null, null, i32 0, metadata !420, i32 1663} ; [ DW_TAG_subprogram ]
!1063 = metadata !{i32 786453, i32 0, metadata !"", i32 0, i32 0, i64 0, i64 0, i64 0, i32 0, null, metadata !1064, i32 0, i32 0} ; [ DW_TAG_subroutine_type ]
!1064 = metadata !{metadata !490, metadata !1049}
!1065 = metadata !{i32 786478, i32 0, metadata !925, metadata !"to_int", metadata !"to_int", metadata !"_ZNK11ap_int_baseILi4ELb1ELb1EE6to_intEv", metadata !448, i32 1664, metadata !1066, i1 false, i1 false, i32 0, i32 0, null, i32 256, i1 false, null, null, i32 0, metadata !420, i32 1664} ; [ DW_TAG_subprogram ]
!1066 = metadata !{i32 786453, i32 0, metadata !"", i32 0, i32 0, i64 0, i64 0, i64 0, i32 0, null, metadata !1067, i32 0, i32 0} ; [ DW_TAG_subroutine_type ]
!1067 = metadata !{metadata !424, metadata !1049}
!1068 = metadata !{i32 786478, i32 0, metadata !925, metadata !"to_uint", metadata !"to_uint", metadata !"_ZNK11ap_int_baseILi4ELb1ELb1EE7to_uintEv", metadata !448, i32 1665, metadata !1069, i1 false, i1 false, i32 0, i32 0, null, i32 256, i1 false, null, null, i32 0, metadata !420, i32 1665} ; [ DW_TAG_subprogram ]
!1069 = metadata !{i32 786453, i32 0, metadata !"", i32 0, i32 0, i64 0, i64 0, i64 0, i32 0, null, metadata !1070, i32 0, i32 0} ; [ DW_TAG_subroutine_type ]
!1070 = metadata !{metadata !501, metadata !1049}
!1071 = metadata !{i32 786478, i32 0, metadata !925, metadata !"to_long", metadata !"to_long", metadata !"_ZNK11ap_int_baseILi4ELb1ELb1EE7to_longEv", metadata !448, i32 1666, metadata !1072, i1 false, i1 false, i32 0, i32 0, null, i32 256, i1 false, null, null, i32 0, metadata !420, i32 1666} ; [ DW_TAG_subprogram ]
!1072 = metadata !{i32 786453, i32 0, metadata !"", i32 0, i32 0, i64 0, i64 0, i64 0, i32 0, null, metadata !1073, i32 0, i32 0} ; [ DW_TAG_subroutine_type ]
!1073 = metadata !{metadata !505, metadata !1049}
!1074 = metadata !{i32 786478, i32 0, metadata !925, metadata !"to_ulong", metadata !"to_ulong", metadata !"_ZNK11ap_int_baseILi4ELb1ELb1EE8to_ulongEv", metadata !448, i32 1667, metadata !1075, i1 false, i1 false, i32 0, i32 0, null, i32 256, i1 false, null, null, i32 0, metadata !420, i32 1667} ; [ DW_TAG_subprogram ]
!1075 = metadata !{i32 786453, i32 0, metadata !"", i32 0, i32 0, i64 0, i64 0, i64 0, i32 0, null, metadata !1076, i32 0, i32 0} ; [ DW_TAG_subroutine_type ]
!1076 = metadata !{metadata !509, metadata !1049}
!1077 = metadata !{i32 786478, i32 0, metadata !925, metadata !"to_int64", metadata !"to_int64", metadata !"_ZNK11ap_int_baseILi4ELb1ELb1EE8to_int64Ev", metadata !448, i32 1668, metadata !1078, i1 false, i1 false, i32 0, i32 0, null, i32 256, i1 false, null, null, i32 0, metadata !420, i32 1668} ; [ DW_TAG_subprogram ]
!1078 = metadata !{i32 786453, i32 0, metadata !"", i32 0, i32 0, i64 0, i64 0, i64 0, i32 0, null, metadata !1079, i32 0, i32 0} ; [ DW_TAG_subroutine_type ]
!1079 = metadata !{metadata !513, metadata !1049}
!1080 = metadata !{i32 786478, i32 0, metadata !925, metadata !"to_uint64", metadata !"to_uint64", metadata !"_ZNK11ap_int_baseILi4ELb1ELb1EE9to_uint64Ev", metadata !448, i32 1669, metadata !1081, i1 false, i1 false, i32 0, i32 0, null, i32 256, i1 false, null, null, i32 0, metadata !420, i32 1669} ; [ DW_TAG_subprogram ]
!1081 = metadata !{i32 786453, i32 0, metadata !"", i32 0, i32 0, i64 0, i64 0, i64 0, i32 0, null, metadata !1082, i32 0, i32 0} ; [ DW_TAG_subroutine_type ]
!1082 = metadata !{metadata !518, metadata !1049}
!1083 = metadata !{i32 786478, i32 0, metadata !925, metadata !"to_double", metadata !"to_double", metadata !"_ZNK11ap_int_baseILi4ELb1ELb1EE9to_doubleEv", metadata !448, i32 1670, metadata !1084, i1 false, i1 false, i32 0, i32 0, null, i32 256, i1 false, null, null, i32 0, metadata !420, i32 1670} ; [ DW_TAG_subprogram ]
!1084 = metadata !{i32 786453, i32 0, metadata !"", i32 0, i32 0, i64 0, i64 0, i64 0, i32 0, null, metadata !1085, i32 0, i32 0} ; [ DW_TAG_subroutine_type ]
!1085 = metadata !{metadata !532, metadata !1049}
!1086 = metadata !{i32 786478, i32 0, metadata !925, metadata !"length", metadata !"length", metadata !"_ZNK11ap_int_baseILi4ELb1ELb1EE6lengthEv", metadata !448, i32 1684, metadata !1066, i1 false, i1 false, i32 0, i32 0, null, i32 256, i1 false, null, null, i32 0, metadata !420, i32 1684} ; [ DW_TAG_subprogram ]
!1087 = metadata !{i32 786478, i32 0, metadata !925, metadata !"length", metadata !"length", metadata !"_ZNVK11ap_int_baseILi4ELb1ELb1EE6lengthEv", metadata !448, i32 1685, metadata !1088, i1 false, i1 false, i32 0, i32 0, null, i32 256, i1 false, null, null, i32 0, metadata !420, i32 1685} ; [ DW_TAG_subprogram ]
!1088 = metadata !{i32 786453, i32 0, metadata !"", i32 0, i32 0, i64 0, i64 0, i64 0, i32 0, null, metadata !1089, i32 0, i32 0} ; [ DW_TAG_subroutine_type ]
!1089 = metadata !{metadata !424, metadata !1090}
!1090 = metadata !{i32 786447, i32 0, metadata !"", i32 0, i32 0, i64 64, i64 64, i64 0, i32 64, metadata !1001} ; [ DW_TAG_pointer_type ]
!1091 = metadata !{i32 786478, i32 0, metadata !925, metadata !"reverse", metadata !"reverse", metadata !"_ZN11ap_int_baseILi4ELb1ELb1EE7reverseEv", metadata !448, i32 1690, metadata !1092, i1 false, i1 false, i32 0, i32 0, null, i32 256, i1 false, null, null, i32 0, metadata !420, i32 1690} ; [ DW_TAG_subprogram ]
!1092 = metadata !{i32 786453, i32 0, metadata !"", i32 0, i32 0, i64 0, i64 0, i64 0, i32 0, null, metadata !1093, i32 0, i32 0} ; [ DW_TAG_subroutine_type ]
!1093 = metadata !{metadata !1006, metadata !941}
!1094 = metadata !{i32 786478, i32 0, metadata !925, metadata !"iszero", metadata !"iszero", metadata !"_ZNK11ap_int_baseILi4ELb1ELb1EE6iszeroEv", metadata !448, i32 1696, metadata !1051, i1 false, i1 false, i32 0, i32 0, null, i32 256, i1 false, null, null, i32 0, metadata !420, i32 1696} ; [ DW_TAG_subprogram ]
!1095 = metadata !{i32 786478, i32 0, metadata !925, metadata !"is_zero", metadata !"is_zero", metadata !"_ZNK11ap_int_baseILi4ELb1ELb1EE7is_zeroEv", metadata !448, i32 1701, metadata !1051, i1 false, i1 false, i32 0, i32 0, null, i32 256, i1 false, null, null, i32 0, metadata !420, i32 1701} ; [ DW_TAG_subprogram ]
!1096 = metadata !{i32 786478, i32 0, metadata !925, metadata !"sign", metadata !"sign", metadata !"_ZNK11ap_int_baseILi4ELb1ELb1EE4signEv", metadata !448, i32 1706, metadata !1051, i1 false, i1 false, i32 0, i32 0, null, i32 256, i1 false, null, null, i32 0, metadata !420, i32 1706} ; [ DW_TAG_subprogram ]
!1097 = metadata !{i32 786478, i32 0, metadata !925, metadata !"clear", metadata !"clear", metadata !"_ZN11ap_int_baseILi4ELb1ELb1EE5clearEi", metadata !448, i32 1714, metadata !958, i1 false, i1 false, i32 0, i32 0, null, i32 256, i1 false, null, null, i32 0, metadata !420, i32 1714} ; [ DW_TAG_subprogram ]
!1098 = metadata !{i32 786478, i32 0, metadata !925, metadata !"invert", metadata !"invert", metadata !"_ZN11ap_int_baseILi4ELb1ELb1EE6invertEi", metadata !448, i32 1720, metadata !958, i1 false, i1 false, i32 0, i32 0, null, i32 256, i1 false, null, null, i32 0, metadata !420, i32 1720} ; [ DW_TAG_subprogram ]
!1099 = metadata !{i32 786478, i32 0, metadata !925, metadata !"test", metadata !"test", metadata !"_ZNK11ap_int_baseILi4ELb1ELb1EE4testEi", metadata !448, i32 1728, metadata !1100, i1 false, i1 false, i32 0, i32 0, null, i32 256, i1 false, null, null, i32 0, metadata !420, i32 1728} ; [ DW_TAG_subprogram ]
!1100 = metadata !{i32 786453, i32 0, metadata !"", i32 0, i32 0, i64 0, i64 0, i64 0, i32 0, null, metadata !1101, i32 0, i32 0} ; [ DW_TAG_subroutine_type ]
!1101 = metadata !{metadata !426, metadata !1049, metadata !424}
!1102 = metadata !{i32 786478, i32 0, metadata !925, metadata !"set", metadata !"set", metadata !"_ZN11ap_int_baseILi4ELb1ELb1EE3setEi", metadata !448, i32 1734, metadata !958, i1 false, i1 false, i32 0, i32 0, null, i32 256, i1 false, null, null, i32 0, metadata !420, i32 1734} ; [ DW_TAG_subprogram ]
!1103 = metadata !{i32 786478, i32 0, metadata !925, metadata !"set", metadata !"set", metadata !"_ZN11ap_int_baseILi4ELb1ELb1EE3setEib", metadata !448, i32 1740, metadata !1104, i1 false, i1 false, i32 0, i32 0, null, i32 256, i1 false, null, null, i32 0, metadata !420, i32 1740} ; [ DW_TAG_subprogram ]
!1104 = metadata !{i32 786453, i32 0, metadata !"", i32 0, i32 0, i64 0, i64 0, i64 0, i32 0, null, metadata !1105, i32 0, i32 0} ; [ DW_TAG_subroutine_type ]
!1105 = metadata !{null, metadata !941, metadata !424, metadata !426}
!1106 = metadata !{i32 786478, i32 0, metadata !925, metadata !"lrotate", metadata !"lrotate", metadata !"_ZN11ap_int_baseILi4ELb1ELb1EE7lrotateEi", metadata !448, i32 1747, metadata !958, i1 false, i1 false, i32 0, i32 0, null, i32 256, i1 false, null, null, i32 0, metadata !420, i32 1747} ; [ DW_TAG_subprogram ]
!1107 = metadata !{i32 786478, i32 0, metadata !925, metadata !"rrotate", metadata !"rrotate", metadata !"_ZN11ap_int_baseILi4ELb1ELb1EE7rrotateEi", metadata !448, i32 1756, metadata !958, i1 false, i1 false, i32 0, i32 0, null, i32 256, i1 false, null, null, i32 0, metadata !420, i32 1756} ; [ DW_TAG_subprogram ]
!1108 = metadata !{i32 786478, i32 0, metadata !925, metadata !"set_bit", metadata !"set_bit", metadata !"_ZN11ap_int_baseILi4ELb1ELb1EE7set_bitEib", metadata !448, i32 1764, metadata !1104, i1 false, i1 false, i32 0, i32 0, null, i32 256, i1 false, null, null, i32 0, metadata !420, i32 1764} ; [ DW_TAG_subprogram ]
!1109 = metadata !{i32 786478, i32 0, metadata !925, metadata !"get_bit", metadata !"get_bit", metadata !"_ZNK11ap_int_baseILi4ELb1ELb1EE7get_bitEi", metadata !448, i32 1769, metadata !1100, i1 false, i1 false, i32 0, i32 0, null, i32 256, i1 false, null, null, i32 0, metadata !420, i32 1769} ; [ DW_TAG_subprogram ]
!1110 = metadata !{i32 786478, i32 0, metadata !925, metadata !"b_not", metadata !"b_not", metadata !"_ZN11ap_int_baseILi4ELb1ELb1EE5b_notEv", metadata !448, i32 1774, metadata !939, i1 false, i1 false, i32 0, i32 0, null, i32 256, i1 false, null, null, i32 0, metadata !420, i32 1774} ; [ DW_TAG_subprogram ]
!1111 = metadata !{i32 786478, i32 0, metadata !925, metadata !"countLeadingZeros", metadata !"countLeadingZeros", metadata !"_ZN11ap_int_baseILi4ELb1ELb1EE17countLeadingZerosEv", metadata !448, i32 1781, metadata !1112, i1 false, i1 false, i32 0, i32 0, null, i32 256, i1 false, null, null, i32 0, metadata !420, i32 1781} ; [ DW_TAG_subprogram ]
!1112 = metadata !{i32 786453, i32 0, metadata !"", i32 0, i32 0, i64 0, i64 0, i64 0, i32 0, null, metadata !1113, i32 0, i32 0} ; [ DW_TAG_subroutine_type ]
!1113 = metadata !{metadata !424, metadata !941}
!1114 = metadata !{i32 786478, i32 0, metadata !925, metadata !"operator++", metadata !"operator++", metadata !"_ZN11ap_int_baseILi4ELb1ELb1EEppEv", metadata !448, i32 1838, metadata !1092, i1 false, i1 false, i32 0, i32 0, null, i32 256, i1 false, null, null, i32 0, metadata !420, i32 1838} ; [ DW_TAG_subprogram ]
!1115 = metadata !{i32 786478, i32 0, metadata !925, metadata !"operator--", metadata !"operator--", metadata !"_ZN11ap_int_baseILi4ELb1ELb1EEmmEv", metadata !448, i32 1842, metadata !1092, i1 false, i1 false, i32 0, i32 0, null, i32 256, i1 false, null, null, i32 0, metadata !420, i32 1842} ; [ DW_TAG_subprogram ]
!1116 = metadata !{i32 786478, i32 0, metadata !925, metadata !"operator++", metadata !"operator++", metadata !"_ZN11ap_int_baseILi4ELb1ELb1EEppEi", metadata !448, i32 1850, metadata !1117, i1 false, i1 false, i32 0, i32 0, null, i32 256, i1 false, null, null, i32 0, metadata !420, i32 1850} ; [ DW_TAG_subprogram ]
!1117 = metadata !{i32 786453, i32 0, metadata !"", i32 0, i32 0, i64 0, i64 0, i64 0, i32 0, null, metadata !1118, i32 0, i32 0} ; [ DW_TAG_subroutine_type ]
!1118 = metadata !{metadata !996, metadata !941, metadata !424}
!1119 = metadata !{i32 786478, i32 0, metadata !925, metadata !"operator--", metadata !"operator--", metadata !"_ZN11ap_int_baseILi4ELb1ELb1EEmmEi", metadata !448, i32 1855, metadata !1117, i1 false, i1 false, i32 0, i32 0, null, i32 256, i1 false, null, null, i32 0, metadata !420, i32 1855} ; [ DW_TAG_subprogram ]
!1120 = metadata !{i32 786478, i32 0, metadata !925, metadata !"operator+", metadata !"operator+", metadata !"_ZNK11ap_int_baseILi4ELb1ELb1EEpsEv", metadata !448, i32 1864, metadata !1121, i1 false, i1 false, i32 0, i32 0, null, i32 256, i1 false, null, null, i32 0, metadata !420, i32 1864} ; [ DW_TAG_subprogram ]
!1121 = metadata !{i32 786453, i32 0, metadata !"", i32 0, i32 0, i64 0, i64 0, i64 0, i32 0, null, metadata !1122, i32 0, i32 0} ; [ DW_TAG_subroutine_type ]
!1122 = metadata !{metadata !925, metadata !1049}
!1123 = metadata !{i32 786478, i32 0, metadata !925, metadata !"operator!", metadata !"operator!", metadata !"_ZNK11ap_int_baseILi4ELb1ELb1EEntEv", metadata !448, i32 1870, metadata !1051, i1 false, i1 false, i32 0, i32 0, null, i32 256, i1 false, null, null, i32 0, metadata !420, i32 1870} ; [ DW_TAG_subprogram ]
!1124 = metadata !{i32 786478, i32 0, metadata !925, metadata !"operator-", metadata !"operator-", metadata !"_ZNK11ap_int_baseILi4ELb1ELb1EEngEv", metadata !448, i32 1875, metadata !1125, i1 false, i1 false, i32 0, i32 0, null, i32 256, i1 false, null, null, i32 0, metadata !420, i32 1875} ; [ DW_TAG_subprogram ]
!1125 = metadata !{i32 786453, i32 0, metadata !"", i32 0, i32 0, i64 0, i64 0, i64 0, i32 0, null, metadata !1126, i32 0, i32 0} ; [ DW_TAG_subroutine_type ]
!1126 = metadata !{metadata !569, metadata !1049}
!1127 = metadata !{i32 786478, i32 0, metadata !925, metadata !"operator<<=<32>", metadata !"operator<<=<32>", metadata !"_ZN11ap_int_baseILi4ELb1ELb1EElSILi32EEERS0_RKS_IXT_ELb1EXleT_Li64EEE", metadata !448, i32 1933, metadata !1128, i1 false, i1 false, i32 0, i32 0, null, i32 256, i1 false, null, metadata !2453, i32 0, metadata !420, i32 1933} ; [ DW_TAG_subprogram ]
!1128 = metadata !{i32 786453, i32 0, metadata !"", i32 0, i32 0, i64 0, i64 0, i64 0, i32 0, null, metadata !1129, i32 0, i32 0} ; [ DW_TAG_subroutine_type ]
!1129 = metadata !{metadata !1006, metadata !941, metadata !1130}
!1130 = metadata !{i32 786448, null, null, null, i32 0, i64 0, i64 0, i64 0, i32 0, metadata !1131} ; [ DW_TAG_reference_type ]
!1131 = metadata !{i32 786470, null, metadata !"", null, i32 0, i64 0, i64 0, i64 0, i32 0, metadata !1132} ; [ DW_TAG_const_type ]
!1132 = metadata !{i32 786434, null, metadata !"ap_int_base<32, true, true>", metadata !448, i32 1397, i64 32, i64 32, i32 0, i32 0, null, metadata !1133, i32 0, null, metadata !2452} ; [ DW_TAG_class_type ]
!1133 = metadata !{metadata !1134, metadata !1145, metadata !1149, metadata !1154, metadata !1160, metadata !1163, metadata !1166, metadata !1169, metadata !1172, metadata !1175, metadata !1178, metadata !1181, metadata !1184, metadata !1187, metadata !1190, metadata !1193, metadata !1196, metadata !1199, metadata !1202, metadata !1205, metadata !1209, metadata !1212, metadata !1215, metadata !1216, metadata !1220, metadata !1223, metadata !1226, metadata !1229, metadata !1232, metadata !1235, metadata !1238, metadata !1241, metadata !1244, metadata !1247, metadata !1250, metadata !1253, metadata !1260, metadata !1263, metadata !1266, metadata !1269, metadata !1272, metadata !1275, metadata !1278, metadata !1281, metadata !1284, metadata !1287, metadata !1290, metadata !1293, metadata !1296, metadata !1297, metadata !1301, metadata !1304, metadata !1305, metadata !1306, metadata !1307, metadata !1308, metadata !1309, metadata !1312, metadata !1313, metadata !1316, metadata !1317, metadata !1318, metadata !1319, metadata !1320, metadata !1321, metadata !1324, metadata !1325, metadata !1326, metadata !1329, metadata !1330, metadata !1333, metadata !1334, metadata !2377, metadata !2381, metadata !2382, metadata !2385, metadata !2386, metadata !2425, metadata !2426, metadata !2427, metadata !2428, metadata !2431, metadata !2432, metadata !2433, metadata !2434, metadata !2435, metadata !2436, metadata !2437, metadata !2438, metadata !2439, metadata !2440, metadata !2441, metadata !2442, metadata !2445, metadata !2448, metadata !2451}
!1134 = metadata !{i32 786460, metadata !1132, null, metadata !448, i32 0, i64 0, i64 0, i64 0, i32 0, metadata !1135} ; [ DW_TAG_inheritance ]
!1135 = metadata !{i32 786434, null, metadata !"ssdm_int<32 + 1024 * 0, true>", metadata !412, i32 34, i64 32, i64 32, i32 0, i32 0, null, metadata !1136, i32 0, null, metadata !1143} ; [ DW_TAG_class_type ]
!1136 = metadata !{metadata !1137, metadata !1139}
!1137 = metadata !{i32 786445, metadata !1135, metadata !"V", metadata !412, i32 34, i64 32, i64 32, i64 0, i32 0, metadata !1138} ; [ DW_TAG_member ]
!1138 = metadata !{i32 786468, null, metadata !"int32", null, i32 0, i64 32, i64 32, i64 0, i32 0, i32 5} ; [ DW_TAG_base_type ]
!1139 = metadata !{i32 786478, i32 0, metadata !1135, metadata !"ssdm_int", metadata !"ssdm_int", metadata !"", metadata !412, i32 34, metadata !1140, i1 false, i1 false, i32 0, i32 0, null, i32 256, i1 false, null, null, i32 0, metadata !420, i32 34} ; [ DW_TAG_subprogram ]
!1140 = metadata !{i32 786453, i32 0, metadata !"", i32 0, i32 0, i64 0, i64 0, i64 0, i32 0, null, metadata !1141, i32 0, i32 0} ; [ DW_TAG_subroutine_type ]
!1141 = metadata !{null, metadata !1142}
!1142 = metadata !{i32 786447, i32 0, metadata !"", i32 0, i32 0, i64 64, i64 64, i64 0, i32 64, metadata !1135} ; [ DW_TAG_pointer_type ]
!1143 = metadata !{metadata !1144, metadata !425}
!1144 = metadata !{i32 786480, null, metadata !"_AP_N", metadata !424, i64 32, null, i32 0, i32 0} ; [ DW_TAG_template_value_parameter ]
!1145 = metadata !{i32 786478, i32 0, metadata !1132, metadata !"ap_int_base", metadata !"ap_int_base", metadata !"", metadata !448, i32 1438, metadata !1146, i1 false, i1 false, i32 0, i32 0, null, i32 256, i1 false, null, null, i32 0, metadata !420, i32 1438} ; [ DW_TAG_subprogram ]
!1146 = metadata !{i32 786453, i32 0, metadata !"", i32 0, i32 0, i64 0, i64 0, i64 0, i32 0, null, metadata !1147, i32 0, i32 0} ; [ DW_TAG_subroutine_type ]
!1147 = metadata !{null, metadata !1148}
!1148 = metadata !{i32 786447, i32 0, metadata !"", i32 0, i32 0, i64 64, i64 64, i64 0, i32 64, metadata !1132} ; [ DW_TAG_pointer_type ]
!1149 = metadata !{i32 786478, i32 0, metadata !1132, metadata !"ap_int_base<32, true>", metadata !"ap_int_base<32, true>", metadata !"", metadata !448, i32 1450, metadata !1150, i1 false, i1 false, i32 0, i32 0, null, i32 256, i1 false, null, metadata !1152, i32 0, metadata !420, i32 1450} ; [ DW_TAG_subprogram ]
!1150 = metadata !{i32 786453, i32 0, metadata !"", i32 0, i32 0, i64 0, i64 0, i64 0, i32 0, null, metadata !1151, i32 0, i32 0} ; [ DW_TAG_subroutine_type ]
!1151 = metadata !{null, metadata !1148, metadata !1130}
!1152 = metadata !{metadata !1153, metadata !445}
!1153 = metadata !{i32 786480, null, metadata !"_AP_W2", metadata !424, i64 32, null, i32 0, i32 0} ; [ DW_TAG_template_value_parameter ]
!1154 = metadata !{i32 786478, i32 0, metadata !1132, metadata !"ap_int_base<32, true>", metadata !"ap_int_base<32, true>", metadata !"", metadata !448, i32 1453, metadata !1155, i1 false, i1 false, i32 0, i32 0, null, i32 256, i1 false, null, metadata !1152, i32 0, metadata !420, i32 1453} ; [ DW_TAG_subprogram ]
!1155 = metadata !{i32 786453, i32 0, metadata !"", i32 0, i32 0, i64 0, i64 0, i64 0, i32 0, null, metadata !1156, i32 0, i32 0} ; [ DW_TAG_subroutine_type ]
!1156 = metadata !{null, metadata !1148, metadata !1157}
!1157 = metadata !{i32 786448, null, null, null, i32 0, i64 0, i64 0, i64 0, i32 0, metadata !1158} ; [ DW_TAG_reference_type ]
!1158 = metadata !{i32 786470, null, metadata !"", null, i32 0, i64 0, i64 0, i64 0, i32 0, metadata !1159} ; [ DW_TAG_const_type ]
!1159 = metadata !{i32 786485, null, metadata !"", null, i32 0, i64 0, i64 0, i64 0, i32 0, metadata !1132} ; [ DW_TAG_volatile_type ]
!1160 = metadata !{i32 786478, i32 0, metadata !1132, metadata !"ap_int_base", metadata !"ap_int_base", metadata !"", metadata !448, i32 1460, metadata !1161, i1 false, i1 false, i32 0, i32 0, null, i32 384, i1 false, null, null, i32 0, metadata !420, i32 1460} ; [ DW_TAG_subprogram ]
!1161 = metadata !{i32 786453, i32 0, metadata !"", i32 0, i32 0, i64 0, i64 0, i64 0, i32 0, null, metadata !1162, i32 0, i32 0} ; [ DW_TAG_subroutine_type ]
!1162 = metadata !{null, metadata !1148, metadata !426}
!1163 = metadata !{i32 786478, i32 0, metadata !1132, metadata !"ap_int_base", metadata !"ap_int_base", metadata !"", metadata !448, i32 1461, metadata !1164, i1 false, i1 false, i32 0, i32 0, null, i32 384, i1 false, null, null, i32 0, metadata !420, i32 1461} ; [ DW_TAG_subprogram ]
!1164 = metadata !{i32 786453, i32 0, metadata !"", i32 0, i32 0, i64 0, i64 0, i64 0, i32 0, null, metadata !1165, i32 0, i32 0} ; [ DW_TAG_subroutine_type ]
!1165 = metadata !{null, metadata !1148, metadata !482}
!1166 = metadata !{i32 786478, i32 0, metadata !1132, metadata !"ap_int_base", metadata !"ap_int_base", metadata !"", metadata !448, i32 1462, metadata !1167, i1 false, i1 false, i32 0, i32 0, null, i32 384, i1 false, null, null, i32 0, metadata !420, i32 1462} ; [ DW_TAG_subprogram ]
!1167 = metadata !{i32 786453, i32 0, metadata !"", i32 0, i32 0, i64 0, i64 0, i64 0, i32 0, null, metadata !1168, i32 0, i32 0} ; [ DW_TAG_subroutine_type ]
!1168 = metadata !{null, metadata !1148, metadata !486}
!1169 = metadata !{i32 786478, i32 0, metadata !1132, metadata !"ap_int_base", metadata !"ap_int_base", metadata !"", metadata !448, i32 1463, metadata !1170, i1 false, i1 false, i32 0, i32 0, null, i32 384, i1 false, null, null, i32 0, metadata !420, i32 1463} ; [ DW_TAG_subprogram ]
!1170 = metadata !{i32 786453, i32 0, metadata !"", i32 0, i32 0, i64 0, i64 0, i64 0, i32 0, null, metadata !1171, i32 0, i32 0} ; [ DW_TAG_subroutine_type ]
!1171 = metadata !{null, metadata !1148, metadata !490}
!1172 = metadata !{i32 786478, i32 0, metadata !1132, metadata !"ap_int_base", metadata !"ap_int_base", metadata !"", metadata !448, i32 1464, metadata !1173, i1 false, i1 false, i32 0, i32 0, null, i32 384, i1 false, null, null, i32 0, metadata !420, i32 1464} ; [ DW_TAG_subprogram ]
!1173 = metadata !{i32 786453, i32 0, metadata !"", i32 0, i32 0, i64 0, i64 0, i64 0, i32 0, null, metadata !1174, i32 0, i32 0} ; [ DW_TAG_subroutine_type ]
!1174 = metadata !{null, metadata !1148, metadata !494}
!1175 = metadata !{i32 786478, i32 0, metadata !1132, metadata !"ap_int_base", metadata !"ap_int_base", metadata !"", metadata !448, i32 1465, metadata !1176, i1 false, i1 false, i32 0, i32 0, null, i32 384, i1 false, null, null, i32 0, metadata !420, i32 1465} ; [ DW_TAG_subprogram ]
!1176 = metadata !{i32 786453, i32 0, metadata !"", i32 0, i32 0, i64 0, i64 0, i64 0, i32 0, null, metadata !1177, i32 0, i32 0} ; [ DW_TAG_subroutine_type ]
!1177 = metadata !{null, metadata !1148, metadata !424}
!1178 = metadata !{i32 786478, i32 0, metadata !1132, metadata !"ap_int_base", metadata !"ap_int_base", metadata !"", metadata !448, i32 1466, metadata !1179, i1 false, i1 false, i32 0, i32 0, null, i32 384, i1 false, null, null, i32 0, metadata !420, i32 1466} ; [ DW_TAG_subprogram ]
!1179 = metadata !{i32 786453, i32 0, metadata !"", i32 0, i32 0, i64 0, i64 0, i64 0, i32 0, null, metadata !1180, i32 0, i32 0} ; [ DW_TAG_subroutine_type ]
!1180 = metadata !{null, metadata !1148, metadata !501}
!1181 = metadata !{i32 786478, i32 0, metadata !1132, metadata !"ap_int_base", metadata !"ap_int_base", metadata !"", metadata !448, i32 1467, metadata !1182, i1 false, i1 false, i32 0, i32 0, null, i32 384, i1 false, null, null, i32 0, metadata !420, i32 1467} ; [ DW_TAG_subprogram ]
!1182 = metadata !{i32 786453, i32 0, metadata !"", i32 0, i32 0, i64 0, i64 0, i64 0, i32 0, null, metadata !1183, i32 0, i32 0} ; [ DW_TAG_subroutine_type ]
!1183 = metadata !{null, metadata !1148, metadata !505}
!1184 = metadata !{i32 786478, i32 0, metadata !1132, metadata !"ap_int_base", metadata !"ap_int_base", metadata !"", metadata !448, i32 1468, metadata !1185, i1 false, i1 false, i32 0, i32 0, null, i32 384, i1 false, null, null, i32 0, metadata !420, i32 1468} ; [ DW_TAG_subprogram ]
!1185 = metadata !{i32 786453, i32 0, metadata !"", i32 0, i32 0, i64 0, i64 0, i64 0, i32 0, null, metadata !1186, i32 0, i32 0} ; [ DW_TAG_subroutine_type ]
!1186 = metadata !{null, metadata !1148, metadata !509}
!1187 = metadata !{i32 786478, i32 0, metadata !1132, metadata !"ap_int_base", metadata !"ap_int_base", metadata !"", metadata !448, i32 1469, metadata !1188, i1 false, i1 false, i32 0, i32 0, null, i32 384, i1 false, null, null, i32 0, metadata !420, i32 1469} ; [ DW_TAG_subprogram ]
!1188 = metadata !{i32 786453, i32 0, metadata !"", i32 0, i32 0, i64 0, i64 0, i64 0, i32 0, null, metadata !1189, i32 0, i32 0} ; [ DW_TAG_subroutine_type ]
!1189 = metadata !{null, metadata !1148, metadata !513}
!1190 = metadata !{i32 786478, i32 0, metadata !1132, metadata !"ap_int_base", metadata !"ap_int_base", metadata !"", metadata !448, i32 1470, metadata !1191, i1 false, i1 false, i32 0, i32 0, null, i32 384, i1 false, null, null, i32 0, metadata !420, i32 1470} ; [ DW_TAG_subprogram ]
!1191 = metadata !{i32 786453, i32 0, metadata !"", i32 0, i32 0, i64 0, i64 0, i64 0, i32 0, null, metadata !1192, i32 0, i32 0} ; [ DW_TAG_subroutine_type ]
!1192 = metadata !{null, metadata !1148, metadata !518}
!1193 = metadata !{i32 786478, i32 0, metadata !1132, metadata !"ap_int_base", metadata !"ap_int_base", metadata !"", metadata !448, i32 1471, metadata !1194, i1 false, i1 false, i32 0, i32 0, null, i32 384, i1 false, null, null, i32 0, metadata !420, i32 1471} ; [ DW_TAG_subprogram ]
!1194 = metadata !{i32 786453, i32 0, metadata !"", i32 0, i32 0, i64 0, i64 0, i64 0, i32 0, null, metadata !1195, i32 0, i32 0} ; [ DW_TAG_subroutine_type ]
!1195 = metadata !{null, metadata !1148, metadata !536}
!1196 = metadata !{i32 786478, i32 0, metadata !1132, metadata !"ap_int_base", metadata !"ap_int_base", metadata !"", metadata !448, i32 1472, metadata !1197, i1 false, i1 false, i32 0, i32 0, null, i32 384, i1 false, null, null, i32 0, metadata !420, i32 1472} ; [ DW_TAG_subprogram ]
!1197 = metadata !{i32 786453, i32 0, metadata !"", i32 0, i32 0, i64 0, i64 0, i64 0, i32 0, null, metadata !1198, i32 0, i32 0} ; [ DW_TAG_subroutine_type ]
!1198 = metadata !{null, metadata !1148, metadata !532}
!1199 = metadata !{i32 786478, i32 0, metadata !1132, metadata !"ap_int_base", metadata !"ap_int_base", metadata !"", metadata !448, i32 1499, metadata !1200, i1 false, i1 false, i32 0, i32 0, null, i32 256, i1 false, null, null, i32 0, metadata !420, i32 1499} ; [ DW_TAG_subprogram ]
!1200 = metadata !{i32 786453, i32 0, metadata !"", i32 0, i32 0, i64 0, i64 0, i64 0, i32 0, null, metadata !1201, i32 0, i32 0} ; [ DW_TAG_subroutine_type ]
!1201 = metadata !{null, metadata !1148, metadata !523}
!1202 = metadata !{i32 786478, i32 0, metadata !1132, metadata !"ap_int_base", metadata !"ap_int_base", metadata !"", metadata !448, i32 1506, metadata !1203, i1 false, i1 false, i32 0, i32 0, null, i32 256, i1 false, null, null, i32 0, metadata !420, i32 1506} ; [ DW_TAG_subprogram ]
!1203 = metadata !{i32 786453, i32 0, metadata !"", i32 0, i32 0, i64 0, i64 0, i64 0, i32 0, null, metadata !1204, i32 0, i32 0} ; [ DW_TAG_subroutine_type ]
!1204 = metadata !{null, metadata !1148, metadata !523, metadata !482}
!1205 = metadata !{i32 786478, i32 0, metadata !1132, metadata !"read", metadata !"read", metadata !"_ZNV11ap_int_baseILi32ELb1ELb1EE4readEv", metadata !448, i32 1527, metadata !1206, i1 false, i1 false, i32 0, i32 0, null, i32 256, i1 false, null, null, i32 0, metadata !420, i32 1527} ; [ DW_TAG_subprogram ]
!1206 = metadata !{i32 786453, i32 0, metadata !"", i32 0, i32 0, i64 0, i64 0, i64 0, i32 0, null, metadata !1207, i32 0, i32 0} ; [ DW_TAG_subroutine_type ]
!1207 = metadata !{metadata !1132, metadata !1208}
!1208 = metadata !{i32 786447, i32 0, metadata !"", i32 0, i32 0, i64 64, i64 64, i64 0, i32 64, metadata !1159} ; [ DW_TAG_pointer_type ]
!1209 = metadata !{i32 786478, i32 0, metadata !1132, metadata !"write", metadata !"write", metadata !"_ZNV11ap_int_baseILi32ELb1ELb1EE5writeERKS0_", metadata !448, i32 1533, metadata !1210, i1 false, i1 false, i32 0, i32 0, null, i32 256, i1 false, null, null, i32 0, metadata !420, i32 1533} ; [ DW_TAG_subprogram ]
!1210 = metadata !{i32 786453, i32 0, metadata !"", i32 0, i32 0, i64 0, i64 0, i64 0, i32 0, null, metadata !1211, i32 0, i32 0} ; [ DW_TAG_subroutine_type ]
!1211 = metadata !{null, metadata !1208, metadata !1130}
!1212 = metadata !{i32 786478, i32 0, metadata !1132, metadata !"operator=", metadata !"operator=", metadata !"_ZNV11ap_int_baseILi32ELb1ELb1EEaSERVKS0_", metadata !448, i32 1545, metadata !1213, i1 false, i1 false, i32 0, i32 0, null, i32 256, i1 false, null, null, i32 0, metadata !420, i32 1545} ; [ DW_TAG_subprogram ]
!1213 = metadata !{i32 786453, i32 0, metadata !"", i32 0, i32 0, i64 0, i64 0, i64 0, i32 0, null, metadata !1214, i32 0, i32 0} ; [ DW_TAG_subroutine_type ]
!1214 = metadata !{null, metadata !1208, metadata !1157}
!1215 = metadata !{i32 786478, i32 0, metadata !1132, metadata !"operator=", metadata !"operator=", metadata !"_ZNV11ap_int_baseILi32ELb1ELb1EEaSERKS0_", metadata !448, i32 1554, metadata !1210, i1 false, i1 false, i32 0, i32 0, null, i32 256, i1 false, null, null, i32 0, metadata !420, i32 1554} ; [ DW_TAG_subprogram ]
!1216 = metadata !{i32 786478, i32 0, metadata !1132, metadata !"operator=", metadata !"operator=", metadata !"_ZN11ap_int_baseILi32ELb1ELb1EEaSERVKS0_", metadata !448, i32 1577, metadata !1217, i1 false, i1 false, i32 0, i32 0, null, i32 256, i1 false, null, null, i32 0, metadata !420, i32 1577} ; [ DW_TAG_subprogram ]
!1217 = metadata !{i32 786453, i32 0, metadata !"", i32 0, i32 0, i64 0, i64 0, i64 0, i32 0, null, metadata !1218, i32 0, i32 0} ; [ DW_TAG_subroutine_type ]
!1218 = metadata !{metadata !1219, metadata !1148, metadata !1157}
!1219 = metadata !{i32 786448, null, null, null, i32 0, i64 0, i64 0, i64 0, i32 0, metadata !1132} ; [ DW_TAG_reference_type ]
!1220 = metadata !{i32 786478, i32 0, metadata !1132, metadata !"operator=", metadata !"operator=", metadata !"_ZN11ap_int_baseILi32ELb1ELb1EEaSERKS0_", metadata !448, i32 1582, metadata !1221, i1 false, i1 false, i32 0, i32 0, null, i32 256, i1 false, null, null, i32 0, metadata !420, i32 1582} ; [ DW_TAG_subprogram ]
!1221 = metadata !{i32 786453, i32 0, metadata !"", i32 0, i32 0, i64 0, i64 0, i64 0, i32 0, null, metadata !1222, i32 0, i32 0} ; [ DW_TAG_subroutine_type ]
!1222 = metadata !{metadata !1219, metadata !1148, metadata !1130}
!1223 = metadata !{i32 786478, i32 0, metadata !1132, metadata !"operator=", metadata !"operator=", metadata !"_ZN11ap_int_baseILi32ELb1ELb1EEaSEPKc", metadata !448, i32 1586, metadata !1224, i1 false, i1 false, i32 0, i32 0, null, i32 256, i1 false, null, null, i32 0, metadata !420, i32 1586} ; [ DW_TAG_subprogram ]
!1224 = metadata !{i32 786453, i32 0, metadata !"", i32 0, i32 0, i64 0, i64 0, i64 0, i32 0, null, metadata !1225, i32 0, i32 0} ; [ DW_TAG_subroutine_type ]
!1225 = metadata !{metadata !1219, metadata !1148, metadata !523}
!1226 = metadata !{i32 786478, i32 0, metadata !1132, metadata !"set", metadata !"set", metadata !"_ZN11ap_int_baseILi32ELb1ELb1EE3setEPKca", metadata !448, i32 1594, metadata !1227, i1 false, i1 false, i32 0, i32 0, null, i32 256, i1 false, null, null, i32 0, metadata !420, i32 1594} ; [ DW_TAG_subprogram ]
!1227 = metadata !{i32 786453, i32 0, metadata !"", i32 0, i32 0, i64 0, i64 0, i64 0, i32 0, null, metadata !1228, i32 0, i32 0} ; [ DW_TAG_subroutine_type ]
!1228 = metadata !{metadata !1219, metadata !1148, metadata !523, metadata !482}
!1229 = metadata !{i32 786478, i32 0, metadata !1132, metadata !"operator=", metadata !"operator=", metadata !"_ZN11ap_int_baseILi32ELb1ELb1EEaSEa", metadata !448, i32 1608, metadata !1230, i1 false, i1 false, i32 0, i32 0, null, i32 256, i1 false, null, null, i32 0, metadata !420, i32 1608} ; [ DW_TAG_subprogram ]
!1230 = metadata !{i32 786453, i32 0, metadata !"", i32 0, i32 0, i64 0, i64 0, i64 0, i32 0, null, metadata !1231, i32 0, i32 0} ; [ DW_TAG_subroutine_type ]
!1231 = metadata !{metadata !1219, metadata !1148, metadata !482}
!1232 = metadata !{i32 786478, i32 0, metadata !1132, metadata !"operator=", metadata !"operator=", metadata !"_ZN11ap_int_baseILi32ELb1ELb1EEaSEh", metadata !448, i32 1609, metadata !1233, i1 false, i1 false, i32 0, i32 0, null, i32 256, i1 false, null, null, i32 0, metadata !420, i32 1609} ; [ DW_TAG_subprogram ]
!1233 = metadata !{i32 786453, i32 0, metadata !"", i32 0, i32 0, i64 0, i64 0, i64 0, i32 0, null, metadata !1234, i32 0, i32 0} ; [ DW_TAG_subroutine_type ]
!1234 = metadata !{metadata !1219, metadata !1148, metadata !486}
!1235 = metadata !{i32 786478, i32 0, metadata !1132, metadata !"operator=", metadata !"operator=", metadata !"_ZN11ap_int_baseILi32ELb1ELb1EEaSEs", metadata !448, i32 1610, metadata !1236, i1 false, i1 false, i32 0, i32 0, null, i32 256, i1 false, null, null, i32 0, metadata !420, i32 1610} ; [ DW_TAG_subprogram ]
!1236 = metadata !{i32 786453, i32 0, metadata !"", i32 0, i32 0, i64 0, i64 0, i64 0, i32 0, null, metadata !1237, i32 0, i32 0} ; [ DW_TAG_subroutine_type ]
!1237 = metadata !{metadata !1219, metadata !1148, metadata !490}
!1238 = metadata !{i32 786478, i32 0, metadata !1132, metadata !"operator=", metadata !"operator=", metadata !"_ZN11ap_int_baseILi32ELb1ELb1EEaSEt", metadata !448, i32 1611, metadata !1239, i1 false, i1 false, i32 0, i32 0, null, i32 256, i1 false, null, null, i32 0, metadata !420, i32 1611} ; [ DW_TAG_subprogram ]
!1239 = metadata !{i32 786453, i32 0, metadata !"", i32 0, i32 0, i64 0, i64 0, i64 0, i32 0, null, metadata !1240, i32 0, i32 0} ; [ DW_TAG_subroutine_type ]
!1240 = metadata !{metadata !1219, metadata !1148, metadata !494}
!1241 = metadata !{i32 786478, i32 0, metadata !1132, metadata !"operator=", metadata !"operator=", metadata !"_ZN11ap_int_baseILi32ELb1ELb1EEaSEi", metadata !448, i32 1612, metadata !1242, i1 false, i1 false, i32 0, i32 0, null, i32 256, i1 false, null, null, i32 0, metadata !420, i32 1612} ; [ DW_TAG_subprogram ]
!1242 = metadata !{i32 786453, i32 0, metadata !"", i32 0, i32 0, i64 0, i64 0, i64 0, i32 0, null, metadata !1243, i32 0, i32 0} ; [ DW_TAG_subroutine_type ]
!1243 = metadata !{metadata !1219, metadata !1148, metadata !424}
!1244 = metadata !{i32 786478, i32 0, metadata !1132, metadata !"operator=", metadata !"operator=", metadata !"_ZN11ap_int_baseILi32ELb1ELb1EEaSEj", metadata !448, i32 1613, metadata !1245, i1 false, i1 false, i32 0, i32 0, null, i32 256, i1 false, null, null, i32 0, metadata !420, i32 1613} ; [ DW_TAG_subprogram ]
!1245 = metadata !{i32 786453, i32 0, metadata !"", i32 0, i32 0, i64 0, i64 0, i64 0, i32 0, null, metadata !1246, i32 0, i32 0} ; [ DW_TAG_subroutine_type ]
!1246 = metadata !{metadata !1219, metadata !1148, metadata !501}
!1247 = metadata !{i32 786478, i32 0, metadata !1132, metadata !"operator=", metadata !"operator=", metadata !"_ZN11ap_int_baseILi32ELb1ELb1EEaSEx", metadata !448, i32 1614, metadata !1248, i1 false, i1 false, i32 0, i32 0, null, i32 256, i1 false, null, null, i32 0, metadata !420, i32 1614} ; [ DW_TAG_subprogram ]
!1248 = metadata !{i32 786453, i32 0, metadata !"", i32 0, i32 0, i64 0, i64 0, i64 0, i32 0, null, metadata !1249, i32 0, i32 0} ; [ DW_TAG_subroutine_type ]
!1249 = metadata !{metadata !1219, metadata !1148, metadata !513}
!1250 = metadata !{i32 786478, i32 0, metadata !1132, metadata !"operator=", metadata !"operator=", metadata !"_ZN11ap_int_baseILi32ELb1ELb1EEaSEy", metadata !448, i32 1615, metadata !1251, i1 false, i1 false, i32 0, i32 0, null, i32 256, i1 false, null, null, i32 0, metadata !420, i32 1615} ; [ DW_TAG_subprogram ]
!1251 = metadata !{i32 786453, i32 0, metadata !"", i32 0, i32 0, i64 0, i64 0, i64 0, i32 0, null, metadata !1252, i32 0, i32 0} ; [ DW_TAG_subroutine_type ]
!1252 = metadata !{metadata !1219, metadata !1148, metadata !518}
!1253 = metadata !{i32 786478, i32 0, metadata !1132, metadata !"operator int", metadata !"operator int", metadata !"_ZNK11ap_int_baseILi32ELb1ELb1EEcviEv", metadata !448, i32 1653, metadata !1254, i1 false, i1 false, i32 0, i32 0, null, i32 256, i1 false, null, null, i32 0, metadata !420, i32 1653} ; [ DW_TAG_subprogram ]
!1254 = metadata !{i32 786453, i32 0, metadata !"", i32 0, i32 0, i64 0, i64 0, i64 0, i32 0, null, metadata !1255, i32 0, i32 0} ; [ DW_TAG_subroutine_type ]
!1255 = metadata !{metadata !1256, metadata !1259}
!1256 = metadata !{i32 786454, metadata !1132, metadata !"RetType", metadata !448, i32 1402, i64 0, i64 0, i64 0, i32 0, metadata !1257} ; [ DW_TAG_typedef ]
!1257 = metadata !{i32 786454, metadata !1258, metadata !"Type", metadata !448, i32 1385, i64 0, i64 0, i64 0, i32 0, metadata !424} ; [ DW_TAG_typedef ]
!1258 = metadata !{i32 786434, null, metadata !"retval<4, true>", metadata !448, i32 1384, i64 8, i64 8, i32 0, i32 0, null, metadata !1046, i32 0, null, metadata !936} ; [ DW_TAG_class_type ]
!1259 = metadata !{i32 786447, i32 0, metadata !"", i32 0, i32 0, i64 64, i64 64, i64 0, i32 64, metadata !1131} ; [ DW_TAG_pointer_type ]
!1260 = metadata !{i32 786478, i32 0, metadata !1132, metadata !"to_bool", metadata !"to_bool", metadata !"_ZNK11ap_int_baseILi32ELb1ELb1EE7to_boolEv", metadata !448, i32 1659, metadata !1261, i1 false, i1 false, i32 0, i32 0, null, i32 256, i1 false, null, null, i32 0, metadata !420, i32 1659} ; [ DW_TAG_subprogram ]
!1261 = metadata !{i32 786453, i32 0, metadata !"", i32 0, i32 0, i64 0, i64 0, i64 0, i32 0, null, metadata !1262, i32 0, i32 0} ; [ DW_TAG_subroutine_type ]
!1262 = metadata !{metadata !426, metadata !1259}
!1263 = metadata !{i32 786478, i32 0, metadata !1132, metadata !"to_uchar", metadata !"to_uchar", metadata !"_ZNK11ap_int_baseILi32ELb1ELb1EE8to_ucharEv", metadata !448, i32 1660, metadata !1264, i1 false, i1 false, i32 0, i32 0, null, i32 256, i1 false, null, null, i32 0, metadata !420, i32 1660} ; [ DW_TAG_subprogram ]
!1264 = metadata !{i32 786453, i32 0, metadata !"", i32 0, i32 0, i64 0, i64 0, i64 0, i32 0, null, metadata !1265, i32 0, i32 0} ; [ DW_TAG_subroutine_type ]
!1265 = metadata !{metadata !486, metadata !1259}
!1266 = metadata !{i32 786478, i32 0, metadata !1132, metadata !"to_char", metadata !"to_char", metadata !"_ZNK11ap_int_baseILi32ELb1ELb1EE7to_charEv", metadata !448, i32 1661, metadata !1267, i1 false, i1 false, i32 0, i32 0, null, i32 256, i1 false, null, null, i32 0, metadata !420, i32 1661} ; [ DW_TAG_subprogram ]
!1267 = metadata !{i32 786453, i32 0, metadata !"", i32 0, i32 0, i64 0, i64 0, i64 0, i32 0, null, metadata !1268, i32 0, i32 0} ; [ DW_TAG_subroutine_type ]
!1268 = metadata !{metadata !482, metadata !1259}
!1269 = metadata !{i32 786478, i32 0, metadata !1132, metadata !"to_ushort", metadata !"to_ushort", metadata !"_ZNK11ap_int_baseILi32ELb1ELb1EE9to_ushortEv", metadata !448, i32 1662, metadata !1270, i1 false, i1 false, i32 0, i32 0, null, i32 256, i1 false, null, null, i32 0, metadata !420, i32 1662} ; [ DW_TAG_subprogram ]
!1270 = metadata !{i32 786453, i32 0, metadata !"", i32 0, i32 0, i64 0, i64 0, i64 0, i32 0, null, metadata !1271, i32 0, i32 0} ; [ DW_TAG_subroutine_type ]
!1271 = metadata !{metadata !494, metadata !1259}
!1272 = metadata !{i32 786478, i32 0, metadata !1132, metadata !"to_short", metadata !"to_short", metadata !"_ZNK11ap_int_baseILi32ELb1ELb1EE8to_shortEv", metadata !448, i32 1663, metadata !1273, i1 false, i1 false, i32 0, i32 0, null, i32 256, i1 false, null, null, i32 0, metadata !420, i32 1663} ; [ DW_TAG_subprogram ]
!1273 = metadata !{i32 786453, i32 0, metadata !"", i32 0, i32 0, i64 0, i64 0, i64 0, i32 0, null, metadata !1274, i32 0, i32 0} ; [ DW_TAG_subroutine_type ]
!1274 = metadata !{metadata !490, metadata !1259}
!1275 = metadata !{i32 786478, i32 0, metadata !1132, metadata !"to_int", metadata !"to_int", metadata !"_ZNK11ap_int_baseILi32ELb1ELb1EE6to_intEv", metadata !448, i32 1664, metadata !1276, i1 false, i1 false, i32 0, i32 0, null, i32 256, i1 false, null, null, i32 0, metadata !420, i32 1664} ; [ DW_TAG_subprogram ]
!1276 = metadata !{i32 786453, i32 0, metadata !"", i32 0, i32 0, i64 0, i64 0, i64 0, i32 0, null, metadata !1277, i32 0, i32 0} ; [ DW_TAG_subroutine_type ]
!1277 = metadata !{metadata !424, metadata !1259}
!1278 = metadata !{i32 786478, i32 0, metadata !1132, metadata !"to_uint", metadata !"to_uint", metadata !"_ZNK11ap_int_baseILi32ELb1ELb1EE7to_uintEv", metadata !448, i32 1665, metadata !1279, i1 false, i1 false, i32 0, i32 0, null, i32 256, i1 false, null, null, i32 0, metadata !420, i32 1665} ; [ DW_TAG_subprogram ]
!1279 = metadata !{i32 786453, i32 0, metadata !"", i32 0, i32 0, i64 0, i64 0, i64 0, i32 0, null, metadata !1280, i32 0, i32 0} ; [ DW_TAG_subroutine_type ]
!1280 = metadata !{metadata !501, metadata !1259}
!1281 = metadata !{i32 786478, i32 0, metadata !1132, metadata !"to_long", metadata !"to_long", metadata !"_ZNK11ap_int_baseILi32ELb1ELb1EE7to_longEv", metadata !448, i32 1666, metadata !1282, i1 false, i1 false, i32 0, i32 0, null, i32 256, i1 false, null, null, i32 0, metadata !420, i32 1666} ; [ DW_TAG_subprogram ]
!1282 = metadata !{i32 786453, i32 0, metadata !"", i32 0, i32 0, i64 0, i64 0, i64 0, i32 0, null, metadata !1283, i32 0, i32 0} ; [ DW_TAG_subroutine_type ]
!1283 = metadata !{metadata !505, metadata !1259}
!1284 = metadata !{i32 786478, i32 0, metadata !1132, metadata !"to_ulong", metadata !"to_ulong", metadata !"_ZNK11ap_int_baseILi32ELb1ELb1EE8to_ulongEv", metadata !448, i32 1667, metadata !1285, i1 false, i1 false, i32 0, i32 0, null, i32 256, i1 false, null, null, i32 0, metadata !420, i32 1667} ; [ DW_TAG_subprogram ]
!1285 = metadata !{i32 786453, i32 0, metadata !"", i32 0, i32 0, i64 0, i64 0, i64 0, i32 0, null, metadata !1286, i32 0, i32 0} ; [ DW_TAG_subroutine_type ]
!1286 = metadata !{metadata !509, metadata !1259}
!1287 = metadata !{i32 786478, i32 0, metadata !1132, metadata !"to_int64", metadata !"to_int64", metadata !"_ZNK11ap_int_baseILi32ELb1ELb1EE8to_int64Ev", metadata !448, i32 1668, metadata !1288, i1 false, i1 false, i32 0, i32 0, null, i32 256, i1 false, null, null, i32 0, metadata !420, i32 1668} ; [ DW_TAG_subprogram ]
!1288 = metadata !{i32 786453, i32 0, metadata !"", i32 0, i32 0, i64 0, i64 0, i64 0, i32 0, null, metadata !1289, i32 0, i32 0} ; [ DW_TAG_subroutine_type ]
!1289 = metadata !{metadata !513, metadata !1259}
!1290 = metadata !{i32 786478, i32 0, metadata !1132, metadata !"to_uint64", metadata !"to_uint64", metadata !"_ZNK11ap_int_baseILi32ELb1ELb1EE9to_uint64Ev", metadata !448, i32 1669, metadata !1291, i1 false, i1 false, i32 0, i32 0, null, i32 256, i1 false, null, null, i32 0, metadata !420, i32 1669} ; [ DW_TAG_subprogram ]
!1291 = metadata !{i32 786453, i32 0, metadata !"", i32 0, i32 0, i64 0, i64 0, i64 0, i32 0, null, metadata !1292, i32 0, i32 0} ; [ DW_TAG_subroutine_type ]
!1292 = metadata !{metadata !518, metadata !1259}
!1293 = metadata !{i32 786478, i32 0, metadata !1132, metadata !"to_double", metadata !"to_double", metadata !"_ZNK11ap_int_baseILi32ELb1ELb1EE9to_doubleEv", metadata !448, i32 1670, metadata !1294, i1 false, i1 false, i32 0, i32 0, null, i32 256, i1 false, null, null, i32 0, metadata !420, i32 1670} ; [ DW_TAG_subprogram ]
!1294 = metadata !{i32 786453, i32 0, metadata !"", i32 0, i32 0, i64 0, i64 0, i64 0, i32 0, null, metadata !1295, i32 0, i32 0} ; [ DW_TAG_subroutine_type ]
!1295 = metadata !{metadata !532, metadata !1259}
!1296 = metadata !{i32 786478, i32 0, metadata !1132, metadata !"length", metadata !"length", metadata !"_ZNK11ap_int_baseILi32ELb1ELb1EE6lengthEv", metadata !448, i32 1684, metadata !1276, i1 false, i1 false, i32 0, i32 0, null, i32 256, i1 false, null, null, i32 0, metadata !420, i32 1684} ; [ DW_TAG_subprogram ]
!1297 = metadata !{i32 786478, i32 0, metadata !1132, metadata !"length", metadata !"length", metadata !"_ZNVK11ap_int_baseILi32ELb1ELb1EE6lengthEv", metadata !448, i32 1685, metadata !1298, i1 false, i1 false, i32 0, i32 0, null, i32 256, i1 false, null, null, i32 0, metadata !420, i32 1685} ; [ DW_TAG_subprogram ]
!1298 = metadata !{i32 786453, i32 0, metadata !"", i32 0, i32 0, i64 0, i64 0, i64 0, i32 0, null, metadata !1299, i32 0, i32 0} ; [ DW_TAG_subroutine_type ]
!1299 = metadata !{metadata !424, metadata !1300}
!1300 = metadata !{i32 786447, i32 0, metadata !"", i32 0, i32 0, i64 64, i64 64, i64 0, i32 64, metadata !1158} ; [ DW_TAG_pointer_type ]
!1301 = metadata !{i32 786478, i32 0, metadata !1132, metadata !"reverse", metadata !"reverse", metadata !"_ZN11ap_int_baseILi32ELb1ELb1EE7reverseEv", metadata !448, i32 1690, metadata !1302, i1 false, i1 false, i32 0, i32 0, null, i32 256, i1 false, null, null, i32 0, metadata !420, i32 1690} ; [ DW_TAG_subprogram ]
!1302 = metadata !{i32 786453, i32 0, metadata !"", i32 0, i32 0, i64 0, i64 0, i64 0, i32 0, null, metadata !1303, i32 0, i32 0} ; [ DW_TAG_subroutine_type ]
!1303 = metadata !{metadata !1219, metadata !1148}
!1304 = metadata !{i32 786478, i32 0, metadata !1132, metadata !"iszero", metadata !"iszero", metadata !"_ZNK11ap_int_baseILi32ELb1ELb1EE6iszeroEv", metadata !448, i32 1696, metadata !1261, i1 false, i1 false, i32 0, i32 0, null, i32 256, i1 false, null, null, i32 0, metadata !420, i32 1696} ; [ DW_TAG_subprogram ]
!1305 = metadata !{i32 786478, i32 0, metadata !1132, metadata !"is_zero", metadata !"is_zero", metadata !"_ZNK11ap_int_baseILi32ELb1ELb1EE7is_zeroEv", metadata !448, i32 1701, metadata !1261, i1 false, i1 false, i32 0, i32 0, null, i32 256, i1 false, null, null, i32 0, metadata !420, i32 1701} ; [ DW_TAG_subprogram ]
!1306 = metadata !{i32 786478, i32 0, metadata !1132, metadata !"sign", metadata !"sign", metadata !"_ZNK11ap_int_baseILi32ELb1ELb1EE4signEv", metadata !448, i32 1706, metadata !1261, i1 false, i1 false, i32 0, i32 0, null, i32 256, i1 false, null, null, i32 0, metadata !420, i32 1706} ; [ DW_TAG_subprogram ]
!1307 = metadata !{i32 786478, i32 0, metadata !1132, metadata !"clear", metadata !"clear", metadata !"_ZN11ap_int_baseILi32ELb1ELb1EE5clearEi", metadata !448, i32 1714, metadata !1176, i1 false, i1 false, i32 0, i32 0, null, i32 256, i1 false, null, null, i32 0, metadata !420, i32 1714} ; [ DW_TAG_subprogram ]
!1308 = metadata !{i32 786478, i32 0, metadata !1132, metadata !"invert", metadata !"invert", metadata !"_ZN11ap_int_baseILi32ELb1ELb1EE6invertEi", metadata !448, i32 1720, metadata !1176, i1 false, i1 false, i32 0, i32 0, null, i32 256, i1 false, null, null, i32 0, metadata !420, i32 1720} ; [ DW_TAG_subprogram ]
!1309 = metadata !{i32 786478, i32 0, metadata !1132, metadata !"test", metadata !"test", metadata !"_ZNK11ap_int_baseILi32ELb1ELb1EE4testEi", metadata !448, i32 1728, metadata !1310, i1 false, i1 false, i32 0, i32 0, null, i32 256, i1 false, null, null, i32 0, metadata !420, i32 1728} ; [ DW_TAG_subprogram ]
!1310 = metadata !{i32 786453, i32 0, metadata !"", i32 0, i32 0, i64 0, i64 0, i64 0, i32 0, null, metadata !1311, i32 0, i32 0} ; [ DW_TAG_subroutine_type ]
!1311 = metadata !{metadata !426, metadata !1259, metadata !424}
!1312 = metadata !{i32 786478, i32 0, metadata !1132, metadata !"set", metadata !"set", metadata !"_ZN11ap_int_baseILi32ELb1ELb1EE3setEi", metadata !448, i32 1734, metadata !1176, i1 false, i1 false, i32 0, i32 0, null, i32 256, i1 false, null, null, i32 0, metadata !420, i32 1734} ; [ DW_TAG_subprogram ]
!1313 = metadata !{i32 786478, i32 0, metadata !1132, metadata !"set", metadata !"set", metadata !"_ZN11ap_int_baseILi32ELb1ELb1EE3setEib", metadata !448, i32 1740, metadata !1314, i1 false, i1 false, i32 0, i32 0, null, i32 256, i1 false, null, null, i32 0, metadata !420, i32 1740} ; [ DW_TAG_subprogram ]
!1314 = metadata !{i32 786453, i32 0, metadata !"", i32 0, i32 0, i64 0, i64 0, i64 0, i32 0, null, metadata !1315, i32 0, i32 0} ; [ DW_TAG_subroutine_type ]
!1315 = metadata !{null, metadata !1148, metadata !424, metadata !426}
!1316 = metadata !{i32 786478, i32 0, metadata !1132, metadata !"lrotate", metadata !"lrotate", metadata !"_ZN11ap_int_baseILi32ELb1ELb1EE7lrotateEi", metadata !448, i32 1747, metadata !1176, i1 false, i1 false, i32 0, i32 0, null, i32 256, i1 false, null, null, i32 0, metadata !420, i32 1747} ; [ DW_TAG_subprogram ]
!1317 = metadata !{i32 786478, i32 0, metadata !1132, metadata !"rrotate", metadata !"rrotate", metadata !"_ZN11ap_int_baseILi32ELb1ELb1EE7rrotateEi", metadata !448, i32 1756, metadata !1176, i1 false, i1 false, i32 0, i32 0, null, i32 256, i1 false, null, null, i32 0, metadata !420, i32 1756} ; [ DW_TAG_subprogram ]
!1318 = metadata !{i32 786478, i32 0, metadata !1132, metadata !"set_bit", metadata !"set_bit", metadata !"_ZN11ap_int_baseILi32ELb1ELb1EE7set_bitEib", metadata !448, i32 1764, metadata !1314, i1 false, i1 false, i32 0, i32 0, null, i32 256, i1 false, null, null, i32 0, metadata !420, i32 1764} ; [ DW_TAG_subprogram ]
!1319 = metadata !{i32 786478, i32 0, metadata !1132, metadata !"get_bit", metadata !"get_bit", metadata !"_ZNK11ap_int_baseILi32ELb1ELb1EE7get_bitEi", metadata !448, i32 1769, metadata !1310, i1 false, i1 false, i32 0, i32 0, null, i32 256, i1 false, null, null, i32 0, metadata !420, i32 1769} ; [ DW_TAG_subprogram ]
!1320 = metadata !{i32 786478, i32 0, metadata !1132, metadata !"b_not", metadata !"b_not", metadata !"_ZN11ap_int_baseILi32ELb1ELb1EE5b_notEv", metadata !448, i32 1774, metadata !1146, i1 false, i1 false, i32 0, i32 0, null, i32 256, i1 false, null, null, i32 0, metadata !420, i32 1774} ; [ DW_TAG_subprogram ]
!1321 = metadata !{i32 786478, i32 0, metadata !1132, metadata !"countLeadingZeros", metadata !"countLeadingZeros", metadata !"_ZN11ap_int_baseILi32ELb1ELb1EE17countLeadingZerosEv", metadata !448, i32 1781, metadata !1322, i1 false, i1 false, i32 0, i32 0, null, i32 256, i1 false, null, null, i32 0, metadata !420, i32 1781} ; [ DW_TAG_subprogram ]
!1322 = metadata !{i32 786453, i32 0, metadata !"", i32 0, i32 0, i64 0, i64 0, i64 0, i32 0, null, metadata !1323, i32 0, i32 0} ; [ DW_TAG_subroutine_type ]
!1323 = metadata !{metadata !424, metadata !1148}
!1324 = metadata !{i32 786478, i32 0, metadata !1132, metadata !"operator++", metadata !"operator++", metadata !"_ZN11ap_int_baseILi32ELb1ELb1EEppEv", metadata !448, i32 1838, metadata !1302, i1 false, i1 false, i32 0, i32 0, null, i32 256, i1 false, null, null, i32 0, metadata !420, i32 1838} ; [ DW_TAG_subprogram ]
!1325 = metadata !{i32 786478, i32 0, metadata !1132, metadata !"operator--", metadata !"operator--", metadata !"_ZN11ap_int_baseILi32ELb1ELb1EEmmEv", metadata !448, i32 1842, metadata !1302, i1 false, i1 false, i32 0, i32 0, null, i32 256, i1 false, null, null, i32 0, metadata !420, i32 1842} ; [ DW_TAG_subprogram ]
!1326 = metadata !{i32 786478, i32 0, metadata !1132, metadata !"operator++", metadata !"operator++", metadata !"_ZN11ap_int_baseILi32ELb1ELb1EEppEi", metadata !448, i32 1850, metadata !1327, i1 false, i1 false, i32 0, i32 0, null, i32 256, i1 false, null, null, i32 0, metadata !420, i32 1850} ; [ DW_TAG_subprogram ]
!1327 = metadata !{i32 786453, i32 0, metadata !"", i32 0, i32 0, i64 0, i64 0, i64 0, i32 0, null, metadata !1328, i32 0, i32 0} ; [ DW_TAG_subroutine_type ]
!1328 = metadata !{metadata !1131, metadata !1148, metadata !424}
!1329 = metadata !{i32 786478, i32 0, metadata !1132, metadata !"operator--", metadata !"operator--", metadata !"_ZN11ap_int_baseILi32ELb1ELb1EEmmEi", metadata !448, i32 1855, metadata !1327, i1 false, i1 false, i32 0, i32 0, null, i32 256, i1 false, null, null, i32 0, metadata !420, i32 1855} ; [ DW_TAG_subprogram ]
!1330 = metadata !{i32 786478, i32 0, metadata !1132, metadata !"operator+", metadata !"operator+", metadata !"_ZNK11ap_int_baseILi32ELb1ELb1EEpsEv", metadata !448, i32 1864, metadata !1331, i1 false, i1 false, i32 0, i32 0, null, i32 256, i1 false, null, null, i32 0, metadata !420, i32 1864} ; [ DW_TAG_subprogram ]
!1331 = metadata !{i32 786453, i32 0, metadata !"", i32 0, i32 0, i64 0, i64 0, i64 0, i32 0, null, metadata !1332, i32 0, i32 0} ; [ DW_TAG_subroutine_type ]
!1332 = metadata !{metadata !1132, metadata !1259}
!1333 = metadata !{i32 786478, i32 0, metadata !1132, metadata !"operator!", metadata !"operator!", metadata !"_ZNK11ap_int_baseILi32ELb1ELb1EEntEv", metadata !448, i32 1870, metadata !1261, i1 false, i1 false, i32 0, i32 0, null, i32 256, i1 false, null, null, i32 0, metadata !420, i32 1870} ; [ DW_TAG_subprogram ]
!1334 = metadata !{i32 786478, i32 0, metadata !1132, metadata !"operator-", metadata !"operator-", metadata !"_ZNK11ap_int_baseILi32ELb1ELb1EEngEv", metadata !448, i32 1875, metadata !1335, i1 false, i1 false, i32 0, i32 0, null, i32 256, i1 false, null, null, i32 0, metadata !420, i32 1875} ; [ DW_TAG_subprogram ]
!1335 = metadata !{i32 786453, i32 0, metadata !"", i32 0, i32 0, i64 0, i64 0, i64 0, i32 0, null, metadata !1336, i32 0, i32 0} ; [ DW_TAG_subroutine_type ]
!1336 = metadata !{metadata !1337, metadata !1259}
!1337 = metadata !{i32 786434, null, metadata !"ap_int_base<33, true, true>", metadata !448, i32 1397, i64 64, i64 64, i32 0, i32 0, null, metadata !1338, i32 0, null, metadata !2376} ; [ DW_TAG_class_type ]
!1338 = metadata !{metadata !1339, metadata !1350, metadata !1354, metadata !1361, metadata !1367, metadata !1370, metadata !1373, metadata !1376, metadata !1379, metadata !1382, metadata !1385, metadata !1388, metadata !1391, metadata !1394, metadata !1397, metadata !1400, metadata !1403, metadata !1406, metadata !1409, metadata !1412, metadata !1416, metadata !1419, metadata !1422, metadata !1423, metadata !1427, metadata !1430, metadata !1433, metadata !1436, metadata !1439, metadata !1442, metadata !1445, metadata !1448, metadata !1451, metadata !1454, metadata !1457, metadata !1460, metadata !1469, metadata !1472, metadata !1475, metadata !1478, metadata !1481, metadata !1484, metadata !1487, metadata !1490, metadata !1493, metadata !1496, metadata !1499, metadata !1502, metadata !1505, metadata !1506, metadata !1510, metadata !1513, metadata !1514, metadata !1515, metadata !1516, metadata !1517, metadata !1518, metadata !1521, metadata !1522, metadata !1525, metadata !1526, metadata !1527, metadata !1528, metadata !1529, metadata !1530, metadata !1533, metadata !1534, metadata !1535, metadata !1538, metadata !1539, metadata !1542, metadata !1543, metadata !2301, metadata !2305, metadata !2306, metadata !2309, metadata !2310, metadata !2349, metadata !2350, metadata !2351, metadata !2352, metadata !2355, metadata !2356, metadata !2357, metadata !2358, metadata !2359, metadata !2360, metadata !2361, metadata !2362, metadata !2363, metadata !2364, metadata !2365, metadata !2366, metadata !2369, metadata !2372, metadata !2375}
!1339 = metadata !{i32 786460, metadata !1337, null, metadata !448, i32 0, i64 0, i64 0, i64 0, i32 0, metadata !1340} ; [ DW_TAG_inheritance ]
!1340 = metadata !{i32 786434, null, metadata !"ssdm_int<33 + 1024 * 0, true>", metadata !412, i32 35, i64 64, i64 64, i32 0, i32 0, null, metadata !1341, i32 0, null, metadata !1348} ; [ DW_TAG_class_type ]
!1341 = metadata !{metadata !1342, metadata !1344}
!1342 = metadata !{i32 786445, metadata !1340, metadata !"V", metadata !412, i32 35, i64 33, i64 64, i64 0, i32 0, metadata !1343} ; [ DW_TAG_member ]
!1343 = metadata !{i32 786468, null, metadata !"int33", null, i32 0, i64 33, i64 64, i64 0, i32 0, i32 5} ; [ DW_TAG_base_type ]
!1344 = metadata !{i32 786478, i32 0, metadata !1340, metadata !"ssdm_int", metadata !"ssdm_int", metadata !"", metadata !412, i32 35, metadata !1345, i1 false, i1 false, i32 0, i32 0, null, i32 256, i1 false, null, null, i32 0, metadata !420, i32 35} ; [ DW_TAG_subprogram ]
!1345 = metadata !{i32 786453, i32 0, metadata !"", i32 0, i32 0, i64 0, i64 0, i64 0, i32 0, null, metadata !1346, i32 0, i32 0} ; [ DW_TAG_subroutine_type ]
!1346 = metadata !{null, metadata !1347}
!1347 = metadata !{i32 786447, i32 0, metadata !"", i32 0, i32 0, i64 64, i64 64, i64 0, i32 64, metadata !1340} ; [ DW_TAG_pointer_type ]
!1348 = metadata !{metadata !1349, metadata !425}
!1349 = metadata !{i32 786480, null, metadata !"_AP_N", metadata !424, i64 33, null, i32 0, i32 0} ; [ DW_TAG_template_value_parameter ]
!1350 = metadata !{i32 786478, i32 0, metadata !1337, metadata !"ap_int_base", metadata !"ap_int_base", metadata !"", metadata !448, i32 1438, metadata !1351, i1 false, i1 false, i32 0, i32 0, null, i32 256, i1 false, null, null, i32 0, metadata !420, i32 1438} ; [ DW_TAG_subprogram ]
!1351 = metadata !{i32 786453, i32 0, metadata !"", i32 0, i32 0, i64 0, i64 0, i64 0, i32 0, null, metadata !1352, i32 0, i32 0} ; [ DW_TAG_subroutine_type ]
!1352 = metadata !{null, metadata !1353}
!1353 = metadata !{i32 786447, i32 0, metadata !"", i32 0, i32 0, i64 64, i64 64, i64 0, i32 64, metadata !1337} ; [ DW_TAG_pointer_type ]
!1354 = metadata !{i32 786478, i32 0, metadata !1337, metadata !"ap_int_base<33, true>", metadata !"ap_int_base<33, true>", metadata !"", metadata !448, i32 1450, metadata !1355, i1 false, i1 false, i32 0, i32 0, null, i32 256, i1 false, null, metadata !1359, i32 0, metadata !420, i32 1450} ; [ DW_TAG_subprogram ]
!1355 = metadata !{i32 786453, i32 0, metadata !"", i32 0, i32 0, i64 0, i64 0, i64 0, i32 0, null, metadata !1356, i32 0, i32 0} ; [ DW_TAG_subroutine_type ]
!1356 = metadata !{null, metadata !1353, metadata !1357}
!1357 = metadata !{i32 786448, null, null, null, i32 0, i64 0, i64 0, i64 0, i32 0, metadata !1358} ; [ DW_TAG_reference_type ]
!1358 = metadata !{i32 786470, null, metadata !"", null, i32 0, i64 0, i64 0, i64 0, i32 0, metadata !1337} ; [ DW_TAG_const_type ]
!1359 = metadata !{metadata !1360, metadata !445}
!1360 = metadata !{i32 786480, null, metadata !"_AP_W2", metadata !424, i64 33, null, i32 0, i32 0} ; [ DW_TAG_template_value_parameter ]
!1361 = metadata !{i32 786478, i32 0, metadata !1337, metadata !"ap_int_base<33, true>", metadata !"ap_int_base<33, true>", metadata !"", metadata !448, i32 1453, metadata !1362, i1 false, i1 false, i32 0, i32 0, null, i32 256, i1 false, null, metadata !1359, i32 0, metadata !420, i32 1453} ; [ DW_TAG_subprogram ]
!1362 = metadata !{i32 786453, i32 0, metadata !"", i32 0, i32 0, i64 0, i64 0, i64 0, i32 0, null, metadata !1363, i32 0, i32 0} ; [ DW_TAG_subroutine_type ]
!1363 = metadata !{null, metadata !1353, metadata !1364}
!1364 = metadata !{i32 786448, null, null, null, i32 0, i64 0, i64 0, i64 0, i32 0, metadata !1365} ; [ DW_TAG_reference_type ]
!1365 = metadata !{i32 786470, null, metadata !"", null, i32 0, i64 0, i64 0, i64 0, i32 0, metadata !1366} ; [ DW_TAG_const_type ]
!1366 = metadata !{i32 786485, null, metadata !"", null, i32 0, i64 0, i64 0, i64 0, i32 0, metadata !1337} ; [ DW_TAG_volatile_type ]
!1367 = metadata !{i32 786478, i32 0, metadata !1337, metadata !"ap_int_base", metadata !"ap_int_base", metadata !"", metadata !448, i32 1460, metadata !1368, i1 false, i1 false, i32 0, i32 0, null, i32 384, i1 false, null, null, i32 0, metadata !420, i32 1460} ; [ DW_TAG_subprogram ]
!1368 = metadata !{i32 786453, i32 0, metadata !"", i32 0, i32 0, i64 0, i64 0, i64 0, i32 0, null, metadata !1369, i32 0, i32 0} ; [ DW_TAG_subroutine_type ]
!1369 = metadata !{null, metadata !1353, metadata !426}
!1370 = metadata !{i32 786478, i32 0, metadata !1337, metadata !"ap_int_base", metadata !"ap_int_base", metadata !"", metadata !448, i32 1461, metadata !1371, i1 false, i1 false, i32 0, i32 0, null, i32 384, i1 false, null, null, i32 0, metadata !420, i32 1461} ; [ DW_TAG_subprogram ]
!1371 = metadata !{i32 786453, i32 0, metadata !"", i32 0, i32 0, i64 0, i64 0, i64 0, i32 0, null, metadata !1372, i32 0, i32 0} ; [ DW_TAG_subroutine_type ]
!1372 = metadata !{null, metadata !1353, metadata !482}
!1373 = metadata !{i32 786478, i32 0, metadata !1337, metadata !"ap_int_base", metadata !"ap_int_base", metadata !"", metadata !448, i32 1462, metadata !1374, i1 false, i1 false, i32 0, i32 0, null, i32 384, i1 false, null, null, i32 0, metadata !420, i32 1462} ; [ DW_TAG_subprogram ]
!1374 = metadata !{i32 786453, i32 0, metadata !"", i32 0, i32 0, i64 0, i64 0, i64 0, i32 0, null, metadata !1375, i32 0, i32 0} ; [ DW_TAG_subroutine_type ]
!1375 = metadata !{null, metadata !1353, metadata !486}
!1376 = metadata !{i32 786478, i32 0, metadata !1337, metadata !"ap_int_base", metadata !"ap_int_base", metadata !"", metadata !448, i32 1463, metadata !1377, i1 false, i1 false, i32 0, i32 0, null, i32 384, i1 false, null, null, i32 0, metadata !420, i32 1463} ; [ DW_TAG_subprogram ]
!1377 = metadata !{i32 786453, i32 0, metadata !"", i32 0, i32 0, i64 0, i64 0, i64 0, i32 0, null, metadata !1378, i32 0, i32 0} ; [ DW_TAG_subroutine_type ]
!1378 = metadata !{null, metadata !1353, metadata !490}
!1379 = metadata !{i32 786478, i32 0, metadata !1337, metadata !"ap_int_base", metadata !"ap_int_base", metadata !"", metadata !448, i32 1464, metadata !1380, i1 false, i1 false, i32 0, i32 0, null, i32 384, i1 false, null, null, i32 0, metadata !420, i32 1464} ; [ DW_TAG_subprogram ]
!1380 = metadata !{i32 786453, i32 0, metadata !"", i32 0, i32 0, i64 0, i64 0, i64 0, i32 0, null, metadata !1381, i32 0, i32 0} ; [ DW_TAG_subroutine_type ]
!1381 = metadata !{null, metadata !1353, metadata !494}
!1382 = metadata !{i32 786478, i32 0, metadata !1337, metadata !"ap_int_base", metadata !"ap_int_base", metadata !"", metadata !448, i32 1465, metadata !1383, i1 false, i1 false, i32 0, i32 0, null, i32 384, i1 false, null, null, i32 0, metadata !420, i32 1465} ; [ DW_TAG_subprogram ]
!1383 = metadata !{i32 786453, i32 0, metadata !"", i32 0, i32 0, i64 0, i64 0, i64 0, i32 0, null, metadata !1384, i32 0, i32 0} ; [ DW_TAG_subroutine_type ]
!1384 = metadata !{null, metadata !1353, metadata !424}
!1385 = metadata !{i32 786478, i32 0, metadata !1337, metadata !"ap_int_base", metadata !"ap_int_base", metadata !"", metadata !448, i32 1466, metadata !1386, i1 false, i1 false, i32 0, i32 0, null, i32 384, i1 false, null, null, i32 0, metadata !420, i32 1466} ; [ DW_TAG_subprogram ]
!1386 = metadata !{i32 786453, i32 0, metadata !"", i32 0, i32 0, i64 0, i64 0, i64 0, i32 0, null, metadata !1387, i32 0, i32 0} ; [ DW_TAG_subroutine_type ]
!1387 = metadata !{null, metadata !1353, metadata !501}
!1388 = metadata !{i32 786478, i32 0, metadata !1337, metadata !"ap_int_base", metadata !"ap_int_base", metadata !"", metadata !448, i32 1467, metadata !1389, i1 false, i1 false, i32 0, i32 0, null, i32 384, i1 false, null, null, i32 0, metadata !420, i32 1467} ; [ DW_TAG_subprogram ]
!1389 = metadata !{i32 786453, i32 0, metadata !"", i32 0, i32 0, i64 0, i64 0, i64 0, i32 0, null, metadata !1390, i32 0, i32 0} ; [ DW_TAG_subroutine_type ]
!1390 = metadata !{null, metadata !1353, metadata !505}
!1391 = metadata !{i32 786478, i32 0, metadata !1337, metadata !"ap_int_base", metadata !"ap_int_base", metadata !"", metadata !448, i32 1468, metadata !1392, i1 false, i1 false, i32 0, i32 0, null, i32 384, i1 false, null, null, i32 0, metadata !420, i32 1468} ; [ DW_TAG_subprogram ]
!1392 = metadata !{i32 786453, i32 0, metadata !"", i32 0, i32 0, i64 0, i64 0, i64 0, i32 0, null, metadata !1393, i32 0, i32 0} ; [ DW_TAG_subroutine_type ]
!1393 = metadata !{null, metadata !1353, metadata !509}
!1394 = metadata !{i32 786478, i32 0, metadata !1337, metadata !"ap_int_base", metadata !"ap_int_base", metadata !"", metadata !448, i32 1469, metadata !1395, i1 false, i1 false, i32 0, i32 0, null, i32 384, i1 false, null, null, i32 0, metadata !420, i32 1469} ; [ DW_TAG_subprogram ]
!1395 = metadata !{i32 786453, i32 0, metadata !"", i32 0, i32 0, i64 0, i64 0, i64 0, i32 0, null, metadata !1396, i32 0, i32 0} ; [ DW_TAG_subroutine_type ]
!1396 = metadata !{null, metadata !1353, metadata !513}
!1397 = metadata !{i32 786478, i32 0, metadata !1337, metadata !"ap_int_base", metadata !"ap_int_base", metadata !"", metadata !448, i32 1470, metadata !1398, i1 false, i1 false, i32 0, i32 0, null, i32 384, i1 false, null, null, i32 0, metadata !420, i32 1470} ; [ DW_TAG_subprogram ]
!1398 = metadata !{i32 786453, i32 0, metadata !"", i32 0, i32 0, i64 0, i64 0, i64 0, i32 0, null, metadata !1399, i32 0, i32 0} ; [ DW_TAG_subroutine_type ]
!1399 = metadata !{null, metadata !1353, metadata !518}
!1400 = metadata !{i32 786478, i32 0, metadata !1337, metadata !"ap_int_base", metadata !"ap_int_base", metadata !"", metadata !448, i32 1471, metadata !1401, i1 false, i1 false, i32 0, i32 0, null, i32 384, i1 false, null, null, i32 0, metadata !420, i32 1471} ; [ DW_TAG_subprogram ]
!1401 = metadata !{i32 786453, i32 0, metadata !"", i32 0, i32 0, i64 0, i64 0, i64 0, i32 0, null, metadata !1402, i32 0, i32 0} ; [ DW_TAG_subroutine_type ]
!1402 = metadata !{null, metadata !1353, metadata !536}
!1403 = metadata !{i32 786478, i32 0, metadata !1337, metadata !"ap_int_base", metadata !"ap_int_base", metadata !"", metadata !448, i32 1472, metadata !1404, i1 false, i1 false, i32 0, i32 0, null, i32 384, i1 false, null, null, i32 0, metadata !420, i32 1472} ; [ DW_TAG_subprogram ]
!1404 = metadata !{i32 786453, i32 0, metadata !"", i32 0, i32 0, i64 0, i64 0, i64 0, i32 0, null, metadata !1405, i32 0, i32 0} ; [ DW_TAG_subroutine_type ]
!1405 = metadata !{null, metadata !1353, metadata !532}
!1406 = metadata !{i32 786478, i32 0, metadata !1337, metadata !"ap_int_base", metadata !"ap_int_base", metadata !"", metadata !448, i32 1499, metadata !1407, i1 false, i1 false, i32 0, i32 0, null, i32 256, i1 false, null, null, i32 0, metadata !420, i32 1499} ; [ DW_TAG_subprogram ]
!1407 = metadata !{i32 786453, i32 0, metadata !"", i32 0, i32 0, i64 0, i64 0, i64 0, i32 0, null, metadata !1408, i32 0, i32 0} ; [ DW_TAG_subroutine_type ]
!1408 = metadata !{null, metadata !1353, metadata !523}
